
freeRTOS_1280_v0.elf:     file format elf32-avr

Sections:
Idx Name          Size      VMA       LMA       File off  Algn
  0 .data         0000000a  00800200  00000e72  00000f06  2**0
                  CONTENTS, ALLOC, LOAD, DATA
  1 .text         00000e72  00000000  00000000  00000094  2**1
                  CONTENTS, ALLOC, LOAD, READONLY, CODE
  2 .bss          00000279  0080020a  0080020a  00000f10  2**0
                  ALLOC
  3 .comment      00000030  00000000  00000000  00000f10  2**0
                  CONTENTS, READONLY
  4 .note.gnu.avr.deviceinfo 00000040  00000000  00000000  00000f40  2**2
                  CONTENTS, READONLY
  5 .debug_info   00000bbc  00000000  00000000  00000f80  2**0
                  CONTENTS, READONLY, DEBUGGING
  6 .debug_abbrev 00000b1a  00000000  00000000  00001b3c  2**0
                  CONTENTS, READONLY, DEBUGGING
  7 .debug_line   000001ed  00000000  00000000  00002656  2**0
                  CONTENTS, READONLY, DEBUGGING
  8 .debug_str    000003e6  00000000  00000000  00002843  2**0
                  CONTENTS, READONLY, DEBUGGING

Disassembly of section .text:

00000000 <__vectors>:
   0:	71 c0       	rjmp	.+226    	; 0xe4 <__ctors_end>
   2:	00 00       	nop
   4:	8c c0       	rjmp	.+280    	; 0x11e <__bad_interrupt>
   6:	00 00       	nop
   8:	8a c0       	rjmp	.+276    	; 0x11e <__bad_interrupt>
   a:	00 00       	nop
   c:	88 c0       	rjmp	.+272    	; 0x11e <__bad_interrupt>
   e:	00 00       	nop
  10:	86 c0       	rjmp	.+268    	; 0x11e <__bad_interrupt>
  12:	00 00       	nop
  14:	84 c0       	rjmp	.+264    	; 0x11e <__bad_interrupt>
  16:	00 00       	nop
  18:	82 c0       	rjmp	.+260    	; 0x11e <__bad_interrupt>
  1a:	00 00       	nop
  1c:	80 c0       	rjmp	.+256    	; 0x11e <__bad_interrupt>
  1e:	00 00       	nop
  20:	7e c0       	rjmp	.+252    	; 0x11e <__bad_interrupt>
  22:	00 00       	nop
  24:	7c c0       	rjmp	.+248    	; 0x11e <__bad_interrupt>
  26:	00 00       	nop
  28:	7a c0       	rjmp	.+244    	; 0x11e <__bad_interrupt>
  2a:	00 00       	nop
  2c:	78 c0       	rjmp	.+240    	; 0x11e <__bad_interrupt>
  2e:	00 00       	nop
  30:	76 c0       	rjmp	.+236    	; 0x11e <__bad_interrupt>
  32:	00 00       	nop
  34:	74 c0       	rjmp	.+232    	; 0x11e <__bad_interrupt>
  36:	00 00       	nop
  38:	72 c0       	rjmp	.+228    	; 0x11e <__bad_interrupt>
  3a:	00 00       	nop
  3c:	70 c0       	rjmp	.+224    	; 0x11e <__bad_interrupt>
  3e:	00 00       	nop
  40:	6e c0       	rjmp	.+220    	; 0x11e <__bad_interrupt>
  42:	00 00       	nop
  44:	63 c2       	rjmp	.+1222   	; 0x50c <__vector_17>
  46:	00 00       	nop
  48:	6a c0       	rjmp	.+212    	; 0x11e <__bad_interrupt>
  4a:	00 00       	nop
  4c:	68 c0       	rjmp	.+208    	; 0x11e <__bad_interrupt>
  4e:	00 00       	nop
  50:	66 c0       	rjmp	.+204    	; 0x11e <__bad_interrupt>
  52:	00 00       	nop
  54:	64 c0       	rjmp	.+200    	; 0x11e <__bad_interrupt>
  56:	00 00       	nop
  58:	62 c0       	rjmp	.+196    	; 0x11e <__bad_interrupt>
  5a:	00 00       	nop
  5c:	60 c0       	rjmp	.+192    	; 0x11e <__bad_interrupt>
  5e:	00 00       	nop
  60:	5e c0       	rjmp	.+188    	; 0x11e <__bad_interrupt>
  62:	00 00       	nop
  64:	5c c0       	rjmp	.+184    	; 0x11e <__bad_interrupt>
  66:	00 00       	nop
  68:	5a c0       	rjmp	.+180    	; 0x11e <__bad_interrupt>
  6a:	00 00       	nop
  6c:	58 c0       	rjmp	.+176    	; 0x11e <__bad_interrupt>
  6e:	00 00       	nop
  70:	56 c0       	rjmp	.+172    	; 0x11e <__bad_interrupt>
  72:	00 00       	nop
  74:	54 c0       	rjmp	.+168    	; 0x11e <__bad_interrupt>
  76:	00 00       	nop
  78:	52 c0       	rjmp	.+164    	; 0x11e <__bad_interrupt>
  7a:	00 00       	nop
  7c:	50 c0       	rjmp	.+160    	; 0x11e <__bad_interrupt>
  7e:	00 00       	nop
  80:	4e c0       	rjmp	.+156    	; 0x11e <__bad_interrupt>
  82:	00 00       	nop
  84:	4c c0       	rjmp	.+152    	; 0x11e <__bad_interrupt>
  86:	00 00       	nop
  88:	4a c0       	rjmp	.+148    	; 0x11e <__bad_interrupt>
  8a:	00 00       	nop
  8c:	48 c0       	rjmp	.+144    	; 0x11e <__bad_interrupt>
  8e:	00 00       	nop
  90:	46 c0       	rjmp	.+140    	; 0x11e <__bad_interrupt>
  92:	00 00       	nop
  94:	44 c0       	rjmp	.+136    	; 0x11e <__bad_interrupt>
  96:	00 00       	nop
  98:	42 c0       	rjmp	.+132    	; 0x11e <__bad_interrupt>
  9a:	00 00       	nop
  9c:	40 c0       	rjmp	.+128    	; 0x11e <__bad_interrupt>
  9e:	00 00       	nop
  a0:	3e c0       	rjmp	.+124    	; 0x11e <__bad_interrupt>
  a2:	00 00       	nop
  a4:	3c c0       	rjmp	.+120    	; 0x11e <__bad_interrupt>
  a6:	00 00       	nop
  a8:	3a c0       	rjmp	.+116    	; 0x11e <__bad_interrupt>
  aa:	00 00       	nop
  ac:	38 c0       	rjmp	.+112    	; 0x11e <__bad_interrupt>
  ae:	00 00       	nop
  b0:	36 c0       	rjmp	.+108    	; 0x11e <__bad_interrupt>
  b2:	00 00       	nop
  b4:	34 c0       	rjmp	.+104    	; 0x11e <__bad_interrupt>
  b6:	00 00       	nop
  b8:	32 c0       	rjmp	.+100    	; 0x11e <__bad_interrupt>
  ba:	00 00       	nop
  bc:	30 c0       	rjmp	.+96     	; 0x11e <__bad_interrupt>
  be:	00 00       	nop
  c0:	2e c0       	rjmp	.+92     	; 0x11e <__bad_interrupt>
  c2:	00 00       	nop
  c4:	2c c0       	rjmp	.+88     	; 0x11e <__bad_interrupt>
  c6:	00 00       	nop
  c8:	2a c0       	rjmp	.+84     	; 0x11e <__bad_interrupt>
  ca:	00 00       	nop
  cc:	28 c0       	rjmp	.+80     	; 0x11e <__bad_interrupt>
  ce:	00 00       	nop
  d0:	26 c0       	rjmp	.+76     	; 0x11e <__bad_interrupt>
  d2:	00 00       	nop
  d4:	24 c0       	rjmp	.+72     	; 0x11e <__bad_interrupt>
  d6:	00 00       	nop
  d8:	22 c0       	rjmp	.+68     	; 0x11e <__bad_interrupt>
  da:	00 00       	nop
  dc:	20 c0       	rjmp	.+64     	; 0x11e <__bad_interrupt>
  de:	00 00       	nop
  e0:	1e c0       	rjmp	.+60     	; 0x11e <__bad_interrupt>
	...

000000e4 <__ctors_end>:
  e4:	11 24       	eor	r1, r1
  e6:	1f be       	out	0x3f, r1	; 63
  e8:	cf ef       	ldi	r28, 0xFF	; 255
  ea:	d1 e2       	ldi	r29, 0x21	; 33
  ec:	de bf       	out	0x3e, r29	; 62
  ee:	cd bf       	out	0x3d, r28	; 61

000000f0 <__do_copy_data>:
  f0:	12 e0       	ldi	r17, 0x02	; 2
  f2:	a0 e0       	ldi	r26, 0x00	; 0
  f4:	b2 e0       	ldi	r27, 0x02	; 2
  f6:	e2 e7       	ldi	r30, 0x72	; 114
  f8:	fe e0       	ldi	r31, 0x0E	; 14
  fa:	00 e0       	ldi	r16, 0x00	; 0
  fc:	0b bf       	out	0x3b, r16	; 59
  fe:	02 c0       	rjmp	.+4      	; 0x104 <__do_copy_data+0x14>
 100:	07 90       	elpm	r0, Z+
 102:	0d 92       	st	X+, r0
 104:	aa 30       	cpi	r26, 0x0A	; 10
 106:	b1 07       	cpc	r27, r17
 108:	d9 f7       	brne	.-10     	; 0x100 <__do_copy_data+0x10>

0000010a <__do_clear_bss>:
 10a:	24 e0       	ldi	r18, 0x04	; 4
 10c:	aa e0       	ldi	r26, 0x0A	; 10
 10e:	b2 e0       	ldi	r27, 0x02	; 2
 110:	01 c0       	rjmp	.+2      	; 0x114 <.do_clear_bss_start>

00000112 <.do_clear_bss_loop>:
 112:	1d 92       	st	X+, r1

00000114 <.do_clear_bss_start>:
 114:	a3 38       	cpi	r26, 0x83	; 131
 116:	b2 07       	cpc	r27, r18
 118:	e1 f7       	brne	.-8      	; 0x112 <.do_clear_bss_loop>
 11a:	94 d6       	rcall	.+3368   	; 0xe44 <main>
 11c:	a8 c6       	rjmp	.+3408   	; 0xe6e <_exit>

0000011e <__bad_interrupt>:
 11e:	70 cf       	rjmp	.-288    	; 0x0 <__vectors>

00000120 <vListInitialise>:
 120:	fc 01       	movw	r30, r24
 122:	03 96       	adiw	r24, 0x03	; 3
 124:	92 83       	std	Z+2, r25	; 0x02
 126:	81 83       	std	Z+1, r24	; 0x01
 128:	4f ef       	ldi	r20, 0xFF	; 255
 12a:	5f ef       	ldi	r21, 0xFF	; 255
 12c:	ba 01       	movw	r22, r20
 12e:	43 83       	std	Z+3, r20	; 0x03
 130:	54 83       	std	Z+4, r21	; 0x04
 132:	65 83       	std	Z+5, r22	; 0x05
 134:	76 83       	std	Z+6, r23	; 0x06
 136:	90 87       	std	Z+8, r25	; 0x08
 138:	87 83       	std	Z+7, r24	; 0x07
 13a:	92 87       	std	Z+10, r25	; 0x0a
 13c:	81 87       	std	Z+9, r24	; 0x09
 13e:	10 82       	st	Z, r1
 140:	08 95       	ret

00000142 <vListInitialiseItem>:
 142:	fc 01       	movw	r30, r24
 144:	13 86       	std	Z+11, r1	; 0x0b
 146:	12 86       	std	Z+10, r1	; 0x0a
 148:	08 95       	ret

0000014a <vListInsertEnd>:
 14a:	cf 93       	push	r28
 14c:	df 93       	push	r29
 14e:	9c 01       	movw	r18, r24
 150:	fb 01       	movw	r30, r22
 152:	dc 01       	movw	r26, r24
 154:	11 96       	adiw	r26, 0x01	; 1
 156:	cd 91       	ld	r28, X+
 158:	dc 91       	ld	r29, X
 15a:	12 97       	sbiw	r26, 0x02	; 2
 15c:	d5 83       	std	Z+5, r29	; 0x05
 15e:	c4 83       	std	Z+4, r28	; 0x04
 160:	8e 81       	ldd	r24, Y+6	; 0x06
 162:	9f 81       	ldd	r25, Y+7	; 0x07
 164:	97 83       	std	Z+7, r25	; 0x07
 166:	86 83       	std	Z+6, r24	; 0x06
 168:	8e 81       	ldd	r24, Y+6	; 0x06
 16a:	9f 81       	ldd	r25, Y+7	; 0x07
 16c:	dc 01       	movw	r26, r24
 16e:	15 96       	adiw	r26, 0x05	; 5
 170:	7c 93       	st	X, r23
 172:	6e 93       	st	-X, r22
 174:	14 97       	sbiw	r26, 0x04	; 4
 176:	7f 83       	std	Y+7, r23	; 0x07
 178:	6e 83       	std	Y+6, r22	; 0x06
 17a:	33 87       	std	Z+11, r19	; 0x0b
 17c:	22 87       	std	Z+10, r18	; 0x0a
 17e:	f9 01       	movw	r30, r18
 180:	80 81       	ld	r24, Z
 182:	8f 5f       	subi	r24, 0xFF	; 255
 184:	80 83       	st	Z, r24
 186:	df 91       	pop	r29
 188:	cf 91       	pop	r28
 18a:	08 95       	ret

0000018c <vListInsert>:
 18c:	ef 92       	push	r14
 18e:	ff 92       	push	r15
 190:	0f 93       	push	r16
 192:	1f 93       	push	r17
 194:	cf 93       	push	r28
 196:	df 93       	push	r29
 198:	7c 01       	movw	r14, r24
 19a:	fb 01       	movw	r30, r22
 19c:	40 81       	ld	r20, Z
 19e:	51 81       	ldd	r21, Z+1	; 0x01
 1a0:	62 81       	ldd	r22, Z+2	; 0x02
 1a2:	73 81       	ldd	r23, Z+3	; 0x03
 1a4:	4f 3f       	cpi	r20, 0xFF	; 255
 1a6:	8f ef       	ldi	r24, 0xFF	; 255
 1a8:	58 07       	cpc	r21, r24
 1aa:	68 07       	cpc	r22, r24
 1ac:	78 07       	cpc	r23, r24
 1ae:	21 f4       	brne	.+8      	; 0x1b8 <vListInsert+0x2c>
 1b0:	e7 01       	movw	r28, r14
 1b2:	a9 85       	ldd	r26, Y+9	; 0x09
 1b4:	ba 85       	ldd	r27, Y+10	; 0x0a
 1b6:	12 c0       	rjmp	.+36     	; 0x1dc <vListInsert+0x50>
 1b8:	d7 01       	movw	r26, r14
 1ba:	13 96       	adiw	r26, 0x03	; 3
 1bc:	14 96       	adiw	r26, 0x04	; 4
 1be:	8d 91       	ld	r24, X+
 1c0:	9c 91       	ld	r25, X
 1c2:	15 97       	sbiw	r26, 0x05	; 5
 1c4:	ec 01       	movw	r28, r24
 1c6:	08 81       	ld	r16, Y
 1c8:	19 81       	ldd	r17, Y+1	; 0x01
 1ca:	2a 81       	ldd	r18, Y+2	; 0x02
 1cc:	3b 81       	ldd	r19, Y+3	; 0x03
 1ce:	40 17       	cp	r20, r16
 1d0:	51 07       	cpc	r21, r17
 1d2:	62 07       	cpc	r22, r18
 1d4:	73 07       	cpc	r23, r19
 1d6:	10 f0       	brcs	.+4      	; 0x1dc <vListInsert+0x50>
 1d8:	dc 01       	movw	r26, r24
 1da:	f0 cf       	rjmp	.-32     	; 0x1bc <vListInsert+0x30>
 1dc:	14 96       	adiw	r26, 0x04	; 4
 1de:	8d 91       	ld	r24, X+
 1e0:	9c 91       	ld	r25, X
 1e2:	15 97       	sbiw	r26, 0x05	; 5
 1e4:	95 83       	std	Z+5, r25	; 0x05
 1e6:	84 83       	std	Z+4, r24	; 0x04
 1e8:	ec 01       	movw	r28, r24
 1ea:	ff 83       	std	Y+7, r31	; 0x07
 1ec:	ee 83       	std	Y+6, r30	; 0x06
 1ee:	b7 83       	std	Z+7, r27	; 0x07
 1f0:	a6 83       	std	Z+6, r26	; 0x06
 1f2:	15 96       	adiw	r26, 0x05	; 5
 1f4:	fc 93       	st	X, r31
 1f6:	ee 93       	st	-X, r30
 1f8:	14 97       	sbiw	r26, 0x04	; 4
 1fa:	f3 86       	std	Z+11, r15	; 0x0b
 1fc:	e2 86       	std	Z+10, r14	; 0x0a
 1fe:	f7 01       	movw	r30, r14
 200:	80 81       	ld	r24, Z
 202:	8f 5f       	subi	r24, 0xFF	; 255
 204:	80 83       	st	Z, r24
 206:	df 91       	pop	r29
 208:	cf 91       	pop	r28
 20a:	1f 91       	pop	r17
 20c:	0f 91       	pop	r16
 20e:	ff 90       	pop	r15
 210:	ef 90       	pop	r14
 212:	08 95       	ret

00000214 <uxListRemove>:
 214:	cf 93       	push	r28
 216:	df 93       	push	r29
 218:	fc 01       	movw	r30, r24
 21a:	a2 85       	ldd	r26, Z+10	; 0x0a
 21c:	b3 85       	ldd	r27, Z+11	; 0x0b
 21e:	84 81       	ldd	r24, Z+4	; 0x04
 220:	95 81       	ldd	r25, Z+5	; 0x05
 222:	26 81       	ldd	r18, Z+6	; 0x06
 224:	37 81       	ldd	r19, Z+7	; 0x07
 226:	ec 01       	movw	r28, r24
 228:	3f 83       	std	Y+7, r19	; 0x07
 22a:	2e 83       	std	Y+6, r18	; 0x06
 22c:	c6 81       	ldd	r28, Z+6	; 0x06
 22e:	d7 81       	ldd	r29, Z+7	; 0x07
 230:	9d 83       	std	Y+5, r25	; 0x05
 232:	8c 83       	std	Y+4, r24	; 0x04
 234:	11 96       	adiw	r26, 0x01	; 1
 236:	8d 91       	ld	r24, X+
 238:	9c 91       	ld	r25, X
 23a:	12 97       	sbiw	r26, 0x02	; 2
 23c:	e8 17       	cp	r30, r24
 23e:	f9 07       	cpc	r31, r25
 240:	21 f4       	brne	.+8      	; 0x24a <uxListRemove+0x36>
 242:	12 96       	adiw	r26, 0x02	; 2
 244:	dc 93       	st	X, r29
 246:	ce 93       	st	-X, r28
 248:	11 97       	sbiw	r26, 0x01	; 1
 24a:	13 86       	std	Z+11, r1	; 0x0b
 24c:	12 86       	std	Z+10, r1	; 0x0a
 24e:	8c 91       	ld	r24, X
 250:	81 50       	subi	r24, 0x01	; 1
 252:	8c 93       	st	X, r24
 254:	8c 91       	ld	r24, X
 256:	df 91       	pop	r29
 258:	cf 91       	pop	r28
 25a:	08 95       	ret

0000025c <pxPortInitialiseStack>:
 25c:	31 e1       	ldi	r19, 0x11	; 17
 25e:	fc 01       	movw	r30, r24
 260:	30 83       	st	Z, r19
 262:	31 97       	sbiw	r30, 0x01	; 1
 264:	22 e2       	ldi	r18, 0x22	; 34
 266:	20 83       	st	Z, r18
 268:	31 97       	sbiw	r30, 0x01	; 1
 26a:	a3 e3       	ldi	r26, 0x33	; 51
 26c:	a0 83       	st	Z, r26
 26e:	31 97       	sbiw	r30, 0x01	; 1
 270:	60 83       	st	Z, r22
 272:	31 97       	sbiw	r30, 0x01	; 1
 274:	70 83       	st	Z, r23
 276:	31 97       	sbiw	r30, 0x01	; 1
 278:	10 82       	st	Z, r1
 27a:	31 97       	sbiw	r30, 0x01	; 1
 27c:	60 e8       	ldi	r22, 0x80	; 128
 27e:	60 83       	st	Z, r22
 280:	31 97       	sbiw	r30, 0x01	; 1
 282:	10 82       	st	Z, r1
 284:	31 97       	sbiw	r30, 0x01	; 1
 286:	62 e0       	ldi	r22, 0x02	; 2
 288:	60 83       	st	Z, r22
 28a:	31 97       	sbiw	r30, 0x01	; 1
 28c:	63 e0       	ldi	r22, 0x03	; 3
 28e:	60 83       	st	Z, r22
 290:	31 97       	sbiw	r30, 0x01	; 1
 292:	64 e0       	ldi	r22, 0x04	; 4
 294:	60 83       	st	Z, r22
 296:	31 97       	sbiw	r30, 0x01	; 1
 298:	65 e0       	ldi	r22, 0x05	; 5
 29a:	60 83       	st	Z, r22
 29c:	31 97       	sbiw	r30, 0x01	; 1
 29e:	66 e0       	ldi	r22, 0x06	; 6
 2a0:	60 83       	st	Z, r22
 2a2:	31 97       	sbiw	r30, 0x01	; 1
 2a4:	67 e0       	ldi	r22, 0x07	; 7
 2a6:	60 83       	st	Z, r22
 2a8:	31 97       	sbiw	r30, 0x01	; 1
 2aa:	68 e0       	ldi	r22, 0x08	; 8
 2ac:	60 83       	st	Z, r22
 2ae:	31 97       	sbiw	r30, 0x01	; 1
 2b0:	69 e0       	ldi	r22, 0x09	; 9
 2b2:	60 83       	st	Z, r22
 2b4:	31 97       	sbiw	r30, 0x01	; 1
 2b6:	60 e1       	ldi	r22, 0x10	; 16
 2b8:	60 83       	st	Z, r22
 2ba:	31 97       	sbiw	r30, 0x01	; 1
 2bc:	30 83       	st	Z, r19
 2be:	31 97       	sbiw	r30, 0x01	; 1
 2c0:	32 e1       	ldi	r19, 0x12	; 18
 2c2:	30 83       	st	Z, r19
 2c4:	31 97       	sbiw	r30, 0x01	; 1
 2c6:	33 e1       	ldi	r19, 0x13	; 19
 2c8:	30 83       	st	Z, r19
 2ca:	31 97       	sbiw	r30, 0x01	; 1
 2cc:	34 e1       	ldi	r19, 0x14	; 20
 2ce:	30 83       	st	Z, r19
 2d0:	31 97       	sbiw	r30, 0x01	; 1
 2d2:	35 e1       	ldi	r19, 0x15	; 21
 2d4:	30 83       	st	Z, r19
 2d6:	31 97       	sbiw	r30, 0x01	; 1
 2d8:	36 e1       	ldi	r19, 0x16	; 22
 2da:	30 83       	st	Z, r19
 2dc:	31 97       	sbiw	r30, 0x01	; 1
 2de:	37 e1       	ldi	r19, 0x17	; 23
 2e0:	30 83       	st	Z, r19
 2e2:	31 97       	sbiw	r30, 0x01	; 1
 2e4:	38 e1       	ldi	r19, 0x18	; 24
 2e6:	30 83       	st	Z, r19
 2e8:	31 97       	sbiw	r30, 0x01	; 1
 2ea:	39 e1       	ldi	r19, 0x19	; 25
 2ec:	30 83       	st	Z, r19
 2ee:	31 97       	sbiw	r30, 0x01	; 1
 2f0:	30 e2       	ldi	r19, 0x20	; 32
 2f2:	30 83       	st	Z, r19
 2f4:	31 97       	sbiw	r30, 0x01	; 1
 2f6:	31 e2       	ldi	r19, 0x21	; 33
 2f8:	30 83       	st	Z, r19
 2fa:	31 97       	sbiw	r30, 0x01	; 1
 2fc:	20 83       	st	Z, r18
 2fe:	31 97       	sbiw	r30, 0x01	; 1
 300:	23 e2       	ldi	r18, 0x23	; 35
 302:	20 83       	st	Z, r18
 304:	31 97       	sbiw	r30, 0x01	; 1
 306:	40 83       	st	Z, r20
 308:	31 97       	sbiw	r30, 0x01	; 1
 30a:	50 83       	st	Z, r21
 30c:	31 97       	sbiw	r30, 0x01	; 1
 30e:	26 e2       	ldi	r18, 0x26	; 38
 310:	20 83       	st	Z, r18
 312:	31 97       	sbiw	r30, 0x01	; 1
 314:	27 e2       	ldi	r18, 0x27	; 39
 316:	20 83       	st	Z, r18
 318:	31 97       	sbiw	r30, 0x01	; 1
 31a:	28 e2       	ldi	r18, 0x28	; 40
 31c:	20 83       	st	Z, r18
 31e:	31 97       	sbiw	r30, 0x01	; 1
 320:	29 e2       	ldi	r18, 0x29	; 41
 322:	20 83       	st	Z, r18
 324:	31 97       	sbiw	r30, 0x01	; 1
 326:	20 e3       	ldi	r18, 0x30	; 48
 328:	20 83       	st	Z, r18
 32a:	31 97       	sbiw	r30, 0x01	; 1
 32c:	21 e3       	ldi	r18, 0x31	; 49
 32e:	20 83       	st	Z, r18
 330:	86 97       	sbiw	r24, 0x26	; 38
 332:	08 95       	ret

00000334 <xPortStartScheduler>:
 334:	10 92 89 00 	sts	0x0089, r1	; 0x800089 <__TEXT_REGION_LENGTH__+0x7e0089>
 338:	8c e7       	ldi	r24, 0x7C	; 124
 33a:	80 93 88 00 	sts	0x0088, r24	; 0x800088 <__TEXT_REGION_LENGTH__+0x7e0088>
 33e:	8b e0       	ldi	r24, 0x0B	; 11
 340:	80 93 81 00 	sts	0x0081, r24	; 0x800081 <__TEXT_REGION_LENGTH__+0x7e0081>
 344:	ef e6       	ldi	r30, 0x6F	; 111
 346:	f0 e0       	ldi	r31, 0x00	; 0
 348:	80 81       	ld	r24, Z
 34a:	82 60       	ori	r24, 0x02	; 2
 34c:	80 83       	st	Z, r24
 34e:	a0 91 7f 04 	lds	r26, 0x047F	; 0x80047f <pxCurrentTCB>
 352:	b0 91 80 04 	lds	r27, 0x0480	; 0x800480 <pxCurrentTCB+0x1>
 356:	cd 91       	ld	r28, X+
 358:	cd bf       	out	0x3d, r28	; 61
 35a:	dd 91       	ld	r29, X+
 35c:	de bf       	out	0x3e, r29	; 62
 35e:	ff 91       	pop	r31
 360:	ef 91       	pop	r30
 362:	df 91       	pop	r29
 364:	cf 91       	pop	r28
 366:	bf 91       	pop	r27
 368:	af 91       	pop	r26
 36a:	9f 91       	pop	r25
 36c:	8f 91       	pop	r24
 36e:	7f 91       	pop	r23
 370:	6f 91       	pop	r22
 372:	5f 91       	pop	r21
 374:	4f 91       	pop	r20
 376:	3f 91       	pop	r19
 378:	2f 91       	pop	r18
 37a:	1f 91       	pop	r17
 37c:	0f 91       	pop	r16
 37e:	ff 90       	pop	r15
 380:	ef 90       	pop	r14
 382:	df 90       	pop	r13
 384:	cf 90       	pop	r12
 386:	bf 90       	pop	r11
 388:	af 90       	pop	r10
 38a:	9f 90       	pop	r9
 38c:	8f 90       	pop	r8
 38e:	7f 90       	pop	r7
 390:	6f 90       	pop	r6
 392:	5f 90       	pop	r5
 394:	4f 90       	pop	r4
 396:	3f 90       	pop	r3
 398:	2f 90       	pop	r2
 39a:	1f 90       	pop	r1
 39c:	0f 90       	pop	r0
 39e:	0f be       	out	0x3f, r0	; 63
 3a0:	0f 90       	pop	r0
 3a2:	08 95       	ret
 3a4:	81 e0       	ldi	r24, 0x01	; 1
 3a6:	08 95       	ret

000003a8 <vPortYield>:
 3a8:	0f 92       	push	r0
 3aa:	0f b6       	in	r0, 0x3f	; 63
 3ac:	f8 94       	cli
 3ae:	0f 92       	push	r0
 3b0:	1f 92       	push	r1
 3b2:	11 24       	eor	r1, r1
 3b4:	2f 92       	push	r2
 3b6:	3f 92       	push	r3
 3b8:	4f 92       	push	r4
 3ba:	5f 92       	push	r5
 3bc:	6f 92       	push	r6
 3be:	7f 92       	push	r7
 3c0:	8f 92       	push	r8
 3c2:	9f 92       	push	r9
 3c4:	af 92       	push	r10
 3c6:	bf 92       	push	r11
 3c8:	cf 92       	push	r12
 3ca:	df 92       	push	r13
 3cc:	ef 92       	push	r14
 3ce:	ff 92       	push	r15
 3d0:	0f 93       	push	r16
 3d2:	1f 93       	push	r17
 3d4:	2f 93       	push	r18
 3d6:	3f 93       	push	r19
 3d8:	4f 93       	push	r20
 3da:	5f 93       	push	r21
 3dc:	6f 93       	push	r22
 3de:	7f 93       	push	r23
 3e0:	8f 93       	push	r24
 3e2:	9f 93       	push	r25
 3e4:	af 93       	push	r26
 3e6:	bf 93       	push	r27
 3e8:	cf 93       	push	r28
 3ea:	df 93       	push	r29
 3ec:	ef 93       	push	r30
 3ee:	ff 93       	push	r31
 3f0:	a0 91 7f 04 	lds	r26, 0x047F	; 0x80047f <pxCurrentTCB>
 3f4:	b0 91 80 04 	lds	r27, 0x0480	; 0x800480 <pxCurrentTCB+0x1>
 3f8:	0d b6       	in	r0, 0x3d	; 61
 3fa:	0d 92       	st	X+, r0
 3fc:	0e b6       	in	r0, 0x3e	; 62
 3fe:	0d 92       	st	X+, r0
 400:	b2 d4       	rcall	.+2404   	; 0xd66 <vTaskSwitchContext>
 402:	a0 91 7f 04 	lds	r26, 0x047F	; 0x80047f <pxCurrentTCB>
 406:	b0 91 80 04 	lds	r27, 0x0480	; 0x800480 <pxCurrentTCB+0x1>
 40a:	cd 91       	ld	r28, X+
 40c:	cd bf       	out	0x3d, r28	; 61
 40e:	dd 91       	ld	r29, X+
 410:	de bf       	out	0x3e, r29	; 62
 412:	ff 91       	pop	r31
 414:	ef 91       	pop	r30
 416:	df 91       	pop	r29
 418:	cf 91       	pop	r28
 41a:	bf 91       	pop	r27
 41c:	af 91       	pop	r26
 41e:	9f 91       	pop	r25
 420:	8f 91       	pop	r24
 422:	7f 91       	pop	r23
 424:	6f 91       	pop	r22
 426:	5f 91       	pop	r21
 428:	4f 91       	pop	r20
 42a:	3f 91       	pop	r19
 42c:	2f 91       	pop	r18
 42e:	1f 91       	pop	r17
 430:	0f 91       	pop	r16
 432:	ff 90       	pop	r15
 434:	ef 90       	pop	r14
 436:	df 90       	pop	r13
 438:	cf 90       	pop	r12
 43a:	bf 90       	pop	r11
 43c:	af 90       	pop	r10
 43e:	9f 90       	pop	r9
 440:	8f 90       	pop	r8
 442:	7f 90       	pop	r7
 444:	6f 90       	pop	r6
 446:	5f 90       	pop	r5
 448:	4f 90       	pop	r4
 44a:	3f 90       	pop	r3
 44c:	2f 90       	pop	r2
 44e:	1f 90       	pop	r1
 450:	0f 90       	pop	r0
 452:	0f be       	out	0x3f, r0	; 63
 454:	0f 90       	pop	r0
 456:	08 95       	ret

00000458 <vPortYieldFromTick>:
 458:	0f 92       	push	r0
 45a:	0f b6       	in	r0, 0x3f	; 63
 45c:	f8 94       	cli
 45e:	0f 92       	push	r0
 460:	1f 92       	push	r1
 462:	11 24       	eor	r1, r1
 464:	2f 92       	push	r2
 466:	3f 92       	push	r3
 468:	4f 92       	push	r4
 46a:	5f 92       	push	r5
 46c:	6f 92       	push	r6
 46e:	7f 92       	push	r7
 470:	8f 92       	push	r8
 472:	9f 92       	push	r9
 474:	af 92       	push	r10
 476:	bf 92       	push	r11
 478:	cf 92       	push	r12
 47a:	df 92       	push	r13
 47c:	ef 92       	push	r14
 47e:	ff 92       	push	r15
 480:	0f 93       	push	r16
 482:	1f 93       	push	r17
 484:	2f 93       	push	r18
 486:	3f 93       	push	r19
 488:	4f 93       	push	r20
 48a:	5f 93       	push	r21
 48c:	6f 93       	push	r22
 48e:	7f 93       	push	r23
 490:	8f 93       	push	r24
 492:	9f 93       	push	r25
 494:	af 93       	push	r26
 496:	bf 93       	push	r27
 498:	cf 93       	push	r28
 49a:	df 93       	push	r29
 49c:	ef 93       	push	r30
 49e:	ff 93       	push	r31
 4a0:	a0 91 7f 04 	lds	r26, 0x047F	; 0x80047f <pxCurrentTCB>
 4a4:	b0 91 80 04 	lds	r27, 0x0480	; 0x800480 <pxCurrentTCB+0x1>
 4a8:	0d b6       	in	r0, 0x3d	; 61
 4aa:	0d 92       	st	X+, r0
 4ac:	0e b6       	in	r0, 0x3e	; 62
 4ae:	0d 92       	st	X+, r0
 4b0:	ab d2       	rcall	.+1366   	; 0xa08 <xTaskIncrementTick>
 4b2:	81 11       	cpse	r24, r1
 4b4:	58 d4       	rcall	.+2224   	; 0xd66 <vTaskSwitchContext>
 4b6:	a0 91 7f 04 	lds	r26, 0x047F	; 0x80047f <pxCurrentTCB>
 4ba:	b0 91 80 04 	lds	r27, 0x0480	; 0x800480 <pxCurrentTCB+0x1>
 4be:	cd 91       	ld	r28, X+
 4c0:	cd bf       	out	0x3d, r28	; 61
 4c2:	dd 91       	ld	r29, X+
 4c4:	de bf       	out	0x3e, r29	; 62
 4c6:	ff 91       	pop	r31
 4c8:	ef 91       	pop	r30
 4ca:	df 91       	pop	r29
 4cc:	cf 91       	pop	r28
 4ce:	bf 91       	pop	r27
 4d0:	af 91       	pop	r26
 4d2:	9f 91       	pop	r25
 4d4:	8f 91       	pop	r24
 4d6:	7f 91       	pop	r23
 4d8:	6f 91       	pop	r22
 4da:	5f 91       	pop	r21
 4dc:	4f 91       	pop	r20
 4de:	3f 91       	pop	r19
 4e0:	2f 91       	pop	r18
 4e2:	1f 91       	pop	r17
 4e4:	0f 91       	pop	r16
 4e6:	ff 90       	pop	r15
 4e8:	ef 90       	pop	r14
 4ea:	df 90       	pop	r13
 4ec:	cf 90       	pop	r12
 4ee:	bf 90       	pop	r11
 4f0:	af 90       	pop	r10
 4f2:	9f 90       	pop	r9
 4f4:	8f 90       	pop	r8
 4f6:	7f 90       	pop	r7
 4f8:	6f 90       	pop	r6
 4fa:	5f 90       	pop	r5
 4fc:	4f 90       	pop	r4
 4fe:	3f 90       	pop	r3
 500:	2f 90       	pop	r2
 502:	1f 90       	pop	r1
 504:	0f 90       	pop	r0
 506:	0f be       	out	0x3f, r0	; 63
 508:	0f 90       	pop	r0
 50a:	08 95       	ret

0000050c <__vector_17>:
 50c:	a5 df       	rcall	.-182    	; 0x458 <vPortYieldFromTick>
 50e:	18 95       	reti

00000510 <pvPortMalloc>:
 510:	cf 93       	push	r28
 512:	df 93       	push	r29
 514:	ec 01       	movw	r28, r24
 516:	64 d2       	rcall	.+1224   	; 0x9e0 <vTaskSuspendAll>
 518:	80 91 0a 02 	lds	r24, 0x020A	; 0x80020a <__data_end>
 51c:	90 91 0b 02 	lds	r25, 0x020B	; 0x80020b <__data_end+0x1>
 520:	89 2b       	or	r24, r25
 522:	31 f4       	brne	.+12     	; 0x530 <pvPortMalloc+0x20>
 524:	8f e0       	ldi	r24, 0x0F	; 15
 526:	92 e0       	ldi	r25, 0x02	; 2
 528:	90 93 0b 02 	sts	0x020B, r25	; 0x80020b <__data_end+0x1>
 52c:	80 93 0a 02 	sts	0x020A, r24	; 0x80020a <__data_end>
 530:	20 91 0c 02 	lds	r18, 0x020C	; 0x80020c <xNextFreeByte>
 534:	30 91 0d 02 	lds	r19, 0x020D	; 0x80020d <xNextFreeByte+0x1>
 538:	c9 01       	movw	r24, r18
 53a:	8c 0f       	add	r24, r28
 53c:	9d 1f       	adc	r25, r29
 53e:	83 3f       	cpi	r24, 0xF3	; 243
 540:	41 e0       	ldi	r20, 0x01	; 1
 542:	94 07       	cpc	r25, r20
 544:	70 f4       	brcc	.+28     	; 0x562 <pvPortMalloc+0x52>
 546:	28 17       	cp	r18, r24
 548:	39 07       	cpc	r19, r25
 54a:	58 f4       	brcc	.+22     	; 0x562 <pvPortMalloc+0x52>
 54c:	c0 91 0a 02 	lds	r28, 0x020A	; 0x80020a <__data_end>
 550:	d0 91 0b 02 	lds	r29, 0x020B	; 0x80020b <__data_end+0x1>
 554:	c2 0f       	add	r28, r18
 556:	d3 1f       	adc	r29, r19
 558:	90 93 0d 02 	sts	0x020D, r25	; 0x80020d <xNextFreeByte+0x1>
 55c:	80 93 0c 02 	sts	0x020C, r24	; 0x80020c <xNextFreeByte>
 560:	02 c0       	rjmp	.+4      	; 0x566 <pvPortMalloc+0x56>
 562:	c0 e0       	ldi	r28, 0x00	; 0
 564:	d0 e0       	ldi	r29, 0x00	; 0
 566:	26 d3       	rcall	.+1612   	; 0xbb4 <xTaskResumeAll>
 568:	ce 01       	movw	r24, r28
 56a:	df 91       	pop	r29
 56c:	cf 91       	pop	r28
 56e:	08 95       	ret

00000570 <vPortFree>:
 570:	08 95       	ret

00000572 <prvResetNextTaskUnblockTime>:
 572:	e0 91 3b 04 	lds	r30, 0x043B	; 0x80043b <pxDelayedTaskList>
 576:	f0 91 3c 04 	lds	r31, 0x043C	; 0x80043c <pxDelayedTaskList+0x1>
 57a:	80 81       	ld	r24, Z
 57c:	81 11       	cpse	r24, r1
 57e:	04 c0       	rjmp	.+8      	; 0x588 <prvResetNextTaskUnblockTime+0x16>
 580:	8f ef       	ldi	r24, 0xFF	; 255
 582:	9f ef       	ldi	r25, 0xFF	; 255
 584:	dc 01       	movw	r26, r24
 586:	0e c0       	rjmp	.+28     	; 0x5a4 <prvResetNextTaskUnblockTime+0x32>
 588:	e0 91 3b 04 	lds	r30, 0x043B	; 0x80043b <pxDelayedTaskList>
 58c:	f0 91 3c 04 	lds	r31, 0x043C	; 0x80043c <pxDelayedTaskList+0x1>
 590:	07 80       	ldd	r0, Z+7	; 0x07
 592:	f0 85       	ldd	r31, Z+8	; 0x08
 594:	e0 2d       	mov	r30, r0
 596:	00 84       	ldd	r0, Z+8	; 0x08
 598:	f1 85       	ldd	r31, Z+9	; 0x09
 59a:	e0 2d       	mov	r30, r0
 59c:	82 81       	ldd	r24, Z+2	; 0x02
 59e:	93 81       	ldd	r25, Z+3	; 0x03
 5a0:	a4 81       	ldd	r26, Z+4	; 0x04
 5a2:	b5 81       	ldd	r27, Z+5	; 0x05
 5a4:	80 93 05 04 	sts	0x0405, r24	; 0x800405 <xNextTaskUnblockTime>
 5a8:	90 93 06 04 	sts	0x0406, r25	; 0x800406 <xNextTaskUnblockTime+0x1>
 5ac:	a0 93 07 04 	sts	0x0407, r26	; 0x800407 <xNextTaskUnblockTime+0x2>
 5b0:	b0 93 08 04 	sts	0x0408, r27	; 0x800408 <xNextTaskUnblockTime+0x3>
 5b4:	08 95       	ret

000005b6 <prvAddCurrentTaskToDelayedList>:
 5b6:	8f 92       	push	r8
 5b8:	9f 92       	push	r9
 5ba:	af 92       	push	r10
 5bc:	bf 92       	push	r11
 5be:	cf 92       	push	r12
 5c0:	df 92       	push	r13
 5c2:	ef 92       	push	r14
 5c4:	ff 92       	push	r15
 5c6:	cf 93       	push	r28
 5c8:	6b 01       	movw	r12, r22
 5ca:	7c 01       	movw	r14, r24
 5cc:	c4 2f       	mov	r28, r20
 5ce:	80 90 12 04 	lds	r8, 0x0412	; 0x800412 <xTickCount>
 5d2:	90 90 13 04 	lds	r9, 0x0413	; 0x800413 <xTickCount+0x1>
 5d6:	a0 90 14 04 	lds	r10, 0x0414	; 0x800414 <xTickCount+0x2>
 5da:	b0 90 15 04 	lds	r11, 0x0415	; 0x800415 <xTickCount+0x3>
 5de:	80 91 7f 04 	lds	r24, 0x047F	; 0x80047f <pxCurrentTCB>
 5e2:	90 91 80 04 	lds	r25, 0x0480	; 0x800480 <pxCurrentTCB+0x1>
 5e6:	02 96       	adiw	r24, 0x02	; 2
 5e8:	15 de       	rcall	.-982    	; 0x214 <uxListRemove>
 5ea:	8f ef       	ldi	r24, 0xFF	; 255
 5ec:	c8 16       	cp	r12, r24
 5ee:	d8 06       	cpc	r13, r24
 5f0:	e8 06       	cpc	r14, r24
 5f2:	f8 06       	cpc	r15, r24
 5f4:	a1 f4       	brne	.+40     	; 0x61e <prvAddCurrentTaskToDelayedList+0x68>
 5f6:	cc 23       	and	r28, r28
 5f8:	91 f0       	breq	.+36     	; 0x61e <prvAddCurrentTaskToDelayedList+0x68>
 5fa:	60 91 7f 04 	lds	r22, 0x047F	; 0x80047f <pxCurrentTCB>
 5fe:	70 91 80 04 	lds	r23, 0x0480	; 0x800480 <pxCurrentTCB+0x1>
 602:	6e 5f       	subi	r22, 0xFE	; 254
 604:	7f 4f       	sbci	r23, 0xFF	; 255
 606:	87 e1       	ldi	r24, 0x17	; 23
 608:	94 e0       	ldi	r25, 0x04	; 4
 60a:	cf 91       	pop	r28
 60c:	ff 90       	pop	r15
 60e:	ef 90       	pop	r14
 610:	df 90       	pop	r13
 612:	cf 90       	pop	r12
 614:	bf 90       	pop	r11
 616:	af 90       	pop	r10
 618:	9f 90       	pop	r9
 61a:	8f 90       	pop	r8
 61c:	96 cd       	rjmp	.-1236   	; 0x14a <vListInsertEnd>
 61e:	c8 0c       	add	r12, r8
 620:	d9 1c       	adc	r13, r9
 622:	ea 1c       	adc	r14, r10
 624:	fb 1c       	adc	r15, r11
 626:	e0 91 7f 04 	lds	r30, 0x047F	; 0x80047f <pxCurrentTCB>
 62a:	f0 91 80 04 	lds	r31, 0x0480	; 0x800480 <pxCurrentTCB+0x1>
 62e:	c2 82       	std	Z+2, r12	; 0x02
 630:	d3 82       	std	Z+3, r13	; 0x03
 632:	e4 82       	std	Z+4, r14	; 0x04
 634:	f5 82       	std	Z+5, r15	; 0x05
 636:	60 91 7f 04 	lds	r22, 0x047F	; 0x80047f <pxCurrentTCB>
 63a:	70 91 80 04 	lds	r23, 0x0480	; 0x800480 <pxCurrentTCB+0x1>
 63e:	c8 14       	cp	r12, r8
 640:	d9 04       	cpc	r13, r9
 642:	ea 04       	cpc	r14, r10
 644:	fb 04       	cpc	r15, r11
 646:	80 f4       	brcc	.+32     	; 0x668 <prvAddCurrentTaskToDelayedList+0xb2>
 648:	80 91 39 04 	lds	r24, 0x0439	; 0x800439 <pxOverflowDelayedTaskList>
 64c:	90 91 3a 04 	lds	r25, 0x043A	; 0x80043a <pxOverflowDelayedTaskList+0x1>
 650:	6e 5f       	subi	r22, 0xFE	; 254
 652:	7f 4f       	sbci	r23, 0xFF	; 255
 654:	cf 91       	pop	r28
 656:	ff 90       	pop	r15
 658:	ef 90       	pop	r14
 65a:	df 90       	pop	r13
 65c:	cf 90       	pop	r12
 65e:	bf 90       	pop	r11
 660:	af 90       	pop	r10
 662:	9f 90       	pop	r9
 664:	8f 90       	pop	r8
 666:	92 cd       	rjmp	.-1244   	; 0x18c <vListInsert>
 668:	80 91 3b 04 	lds	r24, 0x043B	; 0x80043b <pxDelayedTaskList>
 66c:	90 91 3c 04 	lds	r25, 0x043C	; 0x80043c <pxDelayedTaskList+0x1>
 670:	6e 5f       	subi	r22, 0xFE	; 254
 672:	7f 4f       	sbci	r23, 0xFF	; 255
 674:	8b dd       	rcall	.-1258   	; 0x18c <vListInsert>
 676:	80 91 05 04 	lds	r24, 0x0405	; 0x800405 <xNextTaskUnblockTime>
 67a:	90 91 06 04 	lds	r25, 0x0406	; 0x800406 <xNextTaskUnblockTime+0x1>
 67e:	a0 91 07 04 	lds	r26, 0x0407	; 0x800407 <xNextTaskUnblockTime+0x2>
 682:	b0 91 08 04 	lds	r27, 0x0408	; 0x800408 <xNextTaskUnblockTime+0x3>
 686:	c8 16       	cp	r12, r24
 688:	d9 06       	cpc	r13, r25
 68a:	ea 06       	cpc	r14, r26
 68c:	fb 06       	cpc	r15, r27
 68e:	40 f4       	brcc	.+16     	; 0x6a0 <prvAddCurrentTaskToDelayedList+0xea>
 690:	c0 92 05 04 	sts	0x0405, r12	; 0x800405 <xNextTaskUnblockTime>
 694:	d0 92 06 04 	sts	0x0406, r13	; 0x800406 <xNextTaskUnblockTime+0x1>
 698:	e0 92 07 04 	sts	0x0407, r14	; 0x800407 <xNextTaskUnblockTime+0x2>
 69c:	f0 92 08 04 	sts	0x0408, r15	; 0x800408 <xNextTaskUnblockTime+0x3>
 6a0:	cf 91       	pop	r28
 6a2:	ff 90       	pop	r15
 6a4:	ef 90       	pop	r14
 6a6:	df 90       	pop	r13
 6a8:	cf 90       	pop	r12
 6aa:	bf 90       	pop	r11
 6ac:	af 90       	pop	r10
 6ae:	9f 90       	pop	r9
 6b0:	8f 90       	pop	r8
 6b2:	08 95       	ret

000006b4 <prvIdleTask>:
 6b4:	80 91 22 04 	lds	r24, 0x0422	; 0x800422 <uxDeletedTasksWaitingCleanUp>
 6b8:	88 23       	and	r24, r24
 6ba:	e1 f3       	breq	.-8      	; 0x6b4 <prvIdleTask>
 6bc:	0f b6       	in	r0, 0x3f	; 63
 6be:	f8 94       	cli
 6c0:	0f 92       	push	r0
 6c2:	e0 91 2a 04 	lds	r30, 0x042A	; 0x80042a <xTasksWaitingTermination+0x7>
 6c6:	f0 91 2b 04 	lds	r31, 0x042B	; 0x80042b <xTasksWaitingTermination+0x8>
 6ca:	c0 85       	ldd	r28, Z+8	; 0x08
 6cc:	d1 85       	ldd	r29, Z+9	; 0x09
 6ce:	ce 01       	movw	r24, r28
 6d0:	02 96       	adiw	r24, 0x02	; 2
 6d2:	a0 dd       	rcall	.-1216   	; 0x214 <uxListRemove>
 6d4:	80 91 16 04 	lds	r24, 0x0416	; 0x800416 <uxCurrentNumberOfTasks>
 6d8:	81 50       	subi	r24, 0x01	; 1
 6da:	80 93 16 04 	sts	0x0416, r24	; 0x800416 <uxCurrentNumberOfTasks>
 6de:	80 91 22 04 	lds	r24, 0x0422	; 0x800422 <uxDeletedTasksWaitingCleanUp>
 6e2:	81 50       	subi	r24, 0x01	; 1
 6e4:	80 93 22 04 	sts	0x0422, r24	; 0x800422 <uxDeletedTasksWaitingCleanUp>
 6e8:	0f 90       	pop	r0
 6ea:	0f be       	out	0x3f, r0	; 63
 6ec:	8b 8d       	ldd	r24, Y+27	; 0x1b
 6ee:	9c 8d       	ldd	r25, Y+28	; 0x1c
 6f0:	3f df       	rcall	.-386    	; 0x570 <vPortFree>
 6f2:	ce 01       	movw	r24, r28
 6f4:	3d df       	rcall	.-390    	; 0x570 <vPortFree>
 6f6:	de cf       	rjmp	.-68     	; 0x6b4 <prvIdleTask>

000006f8 <xTaskCreate>:
 6f8:	4f 92       	push	r4
 6fa:	5f 92       	push	r5
 6fc:	6f 92       	push	r6
 6fe:	7f 92       	push	r7
 700:	8f 92       	push	r8
 702:	9f 92       	push	r9
 704:	af 92       	push	r10
 706:	bf 92       	push	r11
 708:	cf 92       	push	r12
 70a:	df 92       	push	r13
 70c:	ef 92       	push	r14
 70e:	ff 92       	push	r15
 710:	0f 93       	push	r16
 712:	cf 93       	push	r28
 714:	df 93       	push	r29
 716:	4c 01       	movw	r8, r24
 718:	6b 01       	movw	r12, r22
 71a:	5a 01       	movw	r10, r20
 71c:	29 01       	movw	r4, r18
 71e:	ca 01       	movw	r24, r20
 720:	f7 de       	rcall	.-530    	; 0x510 <pvPortMalloc>
 722:	3c 01       	movw	r6, r24
 724:	89 2b       	or	r24, r25
 726:	09 f4       	brne	.+2      	; 0x72a <xTaskCreate+0x32>
 728:	cb c0       	rjmp	.+406    	; 0x8c0 <xTaskCreate+0x1c8>
 72a:	8a e2       	ldi	r24, 0x2A	; 42
 72c:	90 e0       	ldi	r25, 0x00	; 0
 72e:	f0 de       	rcall	.-544    	; 0x510 <pvPortMalloc>
 730:	ec 01       	movw	r28, r24
 732:	00 97       	sbiw	r24, 0x00	; 0
 734:	89 f0       	breq	.+34     	; 0x758 <xTaskCreate+0x60>
 736:	7c 8e       	std	Y+28, r7	; 0x1c
 738:	6b 8e       	std	Y+27, r6	; 0x1b
 73a:	21 e0       	ldi	r18, 0x01	; 1
 73c:	a2 1a       	sub	r10, r18
 73e:	b1 08       	sbc	r11, r1
 740:	a6 0c       	add	r10, r6
 742:	b7 1c       	adc	r11, r7
 744:	c1 14       	cp	r12, r1
 746:	d1 04       	cpc	r13, r1
 748:	c1 f0       	breq	.+48     	; 0x77a <xTaskCreate+0x82>
 74a:	bc 01       	movw	r22, r24
 74c:	63 5e       	subi	r22, 0xE3	; 227
 74e:	7f 4f       	sbci	r23, 0xFF	; 255
 750:	f6 01       	movw	r30, r12
 752:	c6 01       	movw	r24, r12
 754:	08 96       	adiw	r24, 0x08	; 8
 756:	06 c0       	rjmp	.+12     	; 0x764 <xTaskCreate+0x6c>
 758:	c3 01       	movw	r24, r6
 75a:	0a df       	rcall	.-492    	; 0x570 <vPortFree>
 75c:	b1 c0       	rjmp	.+354    	; 0x8c0 <xTaskCreate+0x1c8>
 75e:	e8 17       	cp	r30, r24
 760:	f9 07       	cpc	r31, r25
 762:	49 f0       	breq	.+18     	; 0x776 <xTaskCreate+0x7e>
 764:	9f 01       	movw	r18, r30
 766:	41 91       	ld	r20, Z+
 768:	db 01       	movw	r26, r22
 76a:	4d 93       	st	X+, r20
 76c:	bd 01       	movw	r22, r26
 76e:	d9 01       	movw	r26, r18
 770:	2c 91       	ld	r18, X
 772:	21 11       	cpse	r18, r1
 774:	f4 cf       	rjmp	.-24     	; 0x75e <xTaskCreate+0x66>
 776:	1c a2       	std	Y+36, r1	; 0x24
 778:	01 c0       	rjmp	.+2      	; 0x77c <xTaskCreate+0x84>
 77a:	1d 8e       	std	Y+29, r1	; 0x1d
 77c:	04 30       	cpi	r16, 0x04	; 4
 77e:	08 f0       	brcs	.+2      	; 0x782 <xTaskCreate+0x8a>
 780:	03 e0       	ldi	r16, 0x03	; 3
 782:	0a 8f       	std	Y+26, r16	; 0x1a
 784:	6e 01       	movw	r12, r28
 786:	b2 e0       	ldi	r27, 0x02	; 2
 788:	cb 0e       	add	r12, r27
 78a:	d1 1c       	adc	r13, r1
 78c:	c6 01       	movw	r24, r12
 78e:	d9 dc       	rcall	.-1614   	; 0x142 <vListInitialiseItem>
 790:	ce 01       	movw	r24, r28
 792:	0e 96       	adiw	r24, 0x0e	; 14
 794:	d6 dc       	rcall	.-1620   	; 0x142 <vListInitialiseItem>
 796:	db 87       	std	Y+11, r29	; 0x0b
 798:	ca 87       	std	Y+10, r28	; 0x0a
 79a:	84 e0       	ldi	r24, 0x04	; 4
 79c:	90 e0       	ldi	r25, 0x00	; 0
 79e:	a0 e0       	ldi	r26, 0x00	; 0
 7a0:	b0 e0       	ldi	r27, 0x00	; 0
 7a2:	80 1b       	sub	r24, r16
 7a4:	91 09       	sbc	r25, r1
 7a6:	a1 09       	sbc	r26, r1
 7a8:	b1 09       	sbc	r27, r1
 7aa:	8e 87       	std	Y+14, r24	; 0x0e
 7ac:	9f 87       	std	Y+15, r25	; 0x0f
 7ae:	a8 8b       	std	Y+16, r26	; 0x10
 7b0:	b9 8b       	std	Y+17, r27	; 0x11
 7b2:	df 8b       	std	Y+23, r29	; 0x17
 7b4:	ce 8b       	std	Y+22, r28	; 0x16
 7b6:	1d a2       	std	Y+37, r1	; 0x25
 7b8:	1e a2       	std	Y+38, r1	; 0x26
 7ba:	1f a2       	std	Y+39, r1	; 0x27
 7bc:	18 a6       	std	Y+40, r1	; 0x28
 7be:	19 a6       	std	Y+41, r1	; 0x29
 7c0:	a2 01       	movw	r20, r4
 7c2:	b4 01       	movw	r22, r8
 7c4:	c5 01       	movw	r24, r10
 7c6:	4a dd       	rcall	.-1388   	; 0x25c <pxPortInitialiseStack>
 7c8:	99 83       	std	Y+1, r25	; 0x01
 7ca:	88 83       	st	Y, r24
 7cc:	e1 14       	cp	r14, r1
 7ce:	f1 04       	cpc	r15, r1
 7d0:	19 f0       	breq	.+6      	; 0x7d8 <xTaskCreate+0xe0>
 7d2:	f7 01       	movw	r30, r14
 7d4:	d1 83       	std	Z+1, r29	; 0x01
 7d6:	c0 83       	st	Z, r28
 7d8:	0f b6       	in	r0, 0x3f	; 63
 7da:	f8 94       	cli
 7dc:	0f 92       	push	r0
 7de:	80 91 16 04 	lds	r24, 0x0416	; 0x800416 <uxCurrentNumberOfTasks>
 7e2:	8f 5f       	subi	r24, 0xFF	; 255
 7e4:	80 93 16 04 	sts	0x0416, r24	; 0x800416 <uxCurrentNumberOfTasks>
 7e8:	80 91 7f 04 	lds	r24, 0x047F	; 0x80047f <pxCurrentTCB>
 7ec:	90 91 80 04 	lds	r25, 0x0480	; 0x800480 <pxCurrentTCB+0x1>
 7f0:	89 2b       	or	r24, r25
 7f2:	89 f5       	brne	.+98     	; 0x856 <xTaskCreate+0x15e>
 7f4:	d0 93 80 04 	sts	0x0480, r29	; 0x800480 <pxCurrentTCB+0x1>
 7f8:	c0 93 7f 04 	sts	0x047F, r28	; 0x80047f <pxCurrentTCB>
 7fc:	80 91 16 04 	lds	r24, 0x0416	; 0x800416 <uxCurrentNumberOfTasks>
 800:	81 30       	cpi	r24, 0x01	; 1
 802:	09 f0       	breq	.+2      	; 0x806 <xTaskCreate+0x10e>
 804:	38 c0       	rjmp	.+112    	; 0x876 <xTaskCreate+0x17e>
 806:	83 e5       	ldi	r24, 0x53	; 83
 808:	94 e0       	ldi	r25, 0x04	; 4
 80a:	8a dc       	rcall	.-1772   	; 0x120 <vListInitialise>
 80c:	8e e5       	ldi	r24, 0x5E	; 94
 80e:	94 e0       	ldi	r25, 0x04	; 4
 810:	87 dc       	rcall	.-1778   	; 0x120 <vListInitialise>
 812:	89 e6       	ldi	r24, 0x69	; 105
 814:	94 e0       	ldi	r25, 0x04	; 4
 816:	84 dc       	rcall	.-1784   	; 0x120 <vListInitialise>
 818:	84 e7       	ldi	r24, 0x74	; 116
 81a:	94 e0       	ldi	r25, 0x04	; 4
 81c:	81 dc       	rcall	.-1790   	; 0x120 <vListInitialise>
 81e:	88 e4       	ldi	r24, 0x48	; 72
 820:	94 e0       	ldi	r25, 0x04	; 4
 822:	7e dc       	rcall	.-1796   	; 0x120 <vListInitialise>
 824:	8d e3       	ldi	r24, 0x3D	; 61
 826:	94 e0       	ldi	r25, 0x04	; 4
 828:	7b dc       	rcall	.-1802   	; 0x120 <vListInitialise>
 82a:	8e e2       	ldi	r24, 0x2E	; 46
 82c:	94 e0       	ldi	r25, 0x04	; 4
 82e:	78 dc       	rcall	.-1808   	; 0x120 <vListInitialise>
 830:	83 e2       	ldi	r24, 0x23	; 35
 832:	94 e0       	ldi	r25, 0x04	; 4
 834:	75 dc       	rcall	.-1814   	; 0x120 <vListInitialise>
 836:	87 e1       	ldi	r24, 0x17	; 23
 838:	94 e0       	ldi	r25, 0x04	; 4
 83a:	72 dc       	rcall	.-1820   	; 0x120 <vListInitialise>
 83c:	88 e4       	ldi	r24, 0x48	; 72
 83e:	94 e0       	ldi	r25, 0x04	; 4
 840:	90 93 3c 04 	sts	0x043C, r25	; 0x80043c <pxDelayedTaskList+0x1>
 844:	80 93 3b 04 	sts	0x043B, r24	; 0x80043b <pxDelayedTaskList>
 848:	8d e3       	ldi	r24, 0x3D	; 61
 84a:	94 e0       	ldi	r25, 0x04	; 4
 84c:	90 93 3a 04 	sts	0x043A, r25	; 0x80043a <pxOverflowDelayedTaskList+0x1>
 850:	80 93 39 04 	sts	0x0439, r24	; 0x800439 <pxOverflowDelayedTaskList>
 854:	10 c0       	rjmp	.+32     	; 0x876 <xTaskCreate+0x17e>
 856:	80 91 10 04 	lds	r24, 0x0410	; 0x800410 <xSchedulerRunning>
 85a:	81 11       	cpse	r24, r1
 85c:	0c c0       	rjmp	.+24     	; 0x876 <xTaskCreate+0x17e>
 85e:	e0 91 7f 04 	lds	r30, 0x047F	; 0x80047f <pxCurrentTCB>
 862:	f0 91 80 04 	lds	r31, 0x0480	; 0x800480 <pxCurrentTCB+0x1>
 866:	92 8d       	ldd	r25, Z+26	; 0x1a
 868:	8a 8d       	ldd	r24, Y+26	; 0x1a
 86a:	89 17       	cp	r24, r25
 86c:	20 f0       	brcs	.+8      	; 0x876 <xTaskCreate+0x17e>
 86e:	d0 93 80 04 	sts	0x0480, r29	; 0x800480 <pxCurrentTCB+0x1>
 872:	c0 93 7f 04 	sts	0x047F, r28	; 0x80047f <pxCurrentTCB>
 876:	80 91 09 04 	lds	r24, 0x0409	; 0x800409 <uxTaskNumber>
 87a:	8f 5f       	subi	r24, 0xFF	; 255
 87c:	80 93 09 04 	sts	0x0409, r24	; 0x800409 <uxTaskNumber>
 880:	8a 8d       	ldd	r24, Y+26	; 0x1a
 882:	90 91 11 04 	lds	r25, 0x0411	; 0x800411 <uxTopReadyPriority>
 886:	98 17       	cp	r25, r24
 888:	10 f4       	brcc	.+4      	; 0x88e <xTaskCreate+0x196>
 88a:	80 93 11 04 	sts	0x0411, r24	; 0x800411 <uxTopReadyPriority>
 88e:	fb e0       	ldi	r31, 0x0B	; 11
 890:	8f 9f       	mul	r24, r31
 892:	c0 01       	movw	r24, r0
 894:	11 24       	eor	r1, r1
 896:	b6 01       	movw	r22, r12
 898:	8d 5a       	subi	r24, 0xAD	; 173
 89a:	9b 4f       	sbci	r25, 0xFB	; 251
 89c:	56 dc       	rcall	.-1876   	; 0x14a <vListInsertEnd>
 89e:	0f 90       	pop	r0
 8a0:	0f be       	out	0x3f, r0	; 63
 8a2:	80 91 10 04 	lds	r24, 0x0410	; 0x800410 <xSchedulerRunning>
 8a6:	88 23       	and	r24, r24
 8a8:	49 f0       	breq	.+18     	; 0x8bc <xTaskCreate+0x1c4>
 8aa:	e0 91 7f 04 	lds	r30, 0x047F	; 0x80047f <pxCurrentTCB>
 8ae:	f0 91 80 04 	lds	r31, 0x0480	; 0x800480 <pxCurrentTCB+0x1>
 8b2:	92 8d       	ldd	r25, Z+26	; 0x1a
 8b4:	8a 8d       	ldd	r24, Y+26	; 0x1a
 8b6:	98 17       	cp	r25, r24
 8b8:	08 f4       	brcc	.+2      	; 0x8bc <xTaskCreate+0x1c4>
 8ba:	76 dd       	rcall	.-1300   	; 0x3a8 <vPortYield>
 8bc:	81 e0       	ldi	r24, 0x01	; 1
 8be:	01 c0       	rjmp	.+2      	; 0x8c2 <xTaskCreate+0x1ca>
 8c0:	8f ef       	ldi	r24, 0xFF	; 255
 8c2:	df 91       	pop	r29
 8c4:	cf 91       	pop	r28
 8c6:	0f 91       	pop	r16
 8c8:	ff 90       	pop	r15
 8ca:	ef 90       	pop	r14
 8cc:	df 90       	pop	r13
 8ce:	cf 90       	pop	r12
 8d0:	bf 90       	pop	r11
 8d2:	af 90       	pop	r10
 8d4:	9f 90       	pop	r9
 8d6:	8f 90       	pop	r8
 8d8:	7f 90       	pop	r7
 8da:	6f 90       	pop	r6
 8dc:	5f 90       	pop	r5
 8de:	4f 90       	pop	r4
 8e0:	08 95       	ret

000008e2 <vTaskDelete>:
 8e2:	0f 93       	push	r16
 8e4:	1f 93       	push	r17
 8e6:	cf 93       	push	r28
 8e8:	df 93       	push	r29
 8ea:	ec 01       	movw	r28, r24
 8ec:	0f b6       	in	r0, 0x3f	; 63
 8ee:	f8 94       	cli
 8f0:	0f 92       	push	r0
 8f2:	89 2b       	or	r24, r25
 8f4:	21 f4       	brne	.+8      	; 0x8fe <vTaskDelete+0x1c>
 8f6:	c0 91 7f 04 	lds	r28, 0x047F	; 0x80047f <pxCurrentTCB>
 8fa:	d0 91 80 04 	lds	r29, 0x0480	; 0x800480 <pxCurrentTCB+0x1>
 8fe:	8e 01       	movw	r16, r28
 900:	0e 5f       	subi	r16, 0xFE	; 254
 902:	1f 4f       	sbci	r17, 0xFF	; 255
 904:	c8 01       	movw	r24, r16
 906:	86 dc       	rcall	.-1780   	; 0x214 <uxListRemove>
 908:	88 8d       	ldd	r24, Y+24	; 0x18
 90a:	99 8d       	ldd	r25, Y+25	; 0x19
 90c:	89 2b       	or	r24, r25
 90e:	19 f0       	breq	.+6      	; 0x916 <vTaskDelete+0x34>
 910:	ce 01       	movw	r24, r28
 912:	0e 96       	adiw	r24, 0x0e	; 14
 914:	7f dc       	rcall	.-1794   	; 0x214 <uxListRemove>
 916:	80 91 09 04 	lds	r24, 0x0409	; 0x800409 <uxTaskNumber>
 91a:	8f 5f       	subi	r24, 0xFF	; 255
 91c:	80 93 09 04 	sts	0x0409, r24	; 0x800409 <uxTaskNumber>
 920:	80 91 7f 04 	lds	r24, 0x047F	; 0x80047f <pxCurrentTCB>
 924:	90 91 80 04 	lds	r25, 0x0480	; 0x800480 <pxCurrentTCB+0x1>
 928:	c8 17       	cp	r28, r24
 92a:	d9 07       	cpc	r29, r25
 92c:	51 f4       	brne	.+20     	; 0x942 <vTaskDelete+0x60>
 92e:	b8 01       	movw	r22, r16
 930:	83 e2       	ldi	r24, 0x23	; 35
 932:	94 e0       	ldi	r25, 0x04	; 4
 934:	0a dc       	rcall	.-2028   	; 0x14a <vListInsertEnd>
 936:	80 91 22 04 	lds	r24, 0x0422	; 0x800422 <uxDeletedTasksWaitingCleanUp>
 93a:	8f 5f       	subi	r24, 0xFF	; 255
 93c:	80 93 22 04 	sts	0x0422, r24	; 0x800422 <uxDeletedTasksWaitingCleanUp>
 940:	0b c0       	rjmp	.+22     	; 0x958 <vTaskDelete+0x76>
 942:	80 91 16 04 	lds	r24, 0x0416	; 0x800416 <uxCurrentNumberOfTasks>
 946:	81 50       	subi	r24, 0x01	; 1
 948:	80 93 16 04 	sts	0x0416, r24	; 0x800416 <uxCurrentNumberOfTasks>
 94c:	8b 8d       	ldd	r24, Y+27	; 0x1b
 94e:	9c 8d       	ldd	r25, Y+28	; 0x1c
 950:	0f de       	rcall	.-994    	; 0x570 <vPortFree>
 952:	ce 01       	movw	r24, r28
 954:	0d de       	rcall	.-998    	; 0x570 <vPortFree>
 956:	0d de       	rcall	.-998    	; 0x572 <prvResetNextTaskUnblockTime>
 958:	0f 90       	pop	r0
 95a:	0f be       	out	0x3f, r0	; 63
 95c:	80 91 10 04 	lds	r24, 0x0410	; 0x800410 <xSchedulerRunning>
 960:	88 23       	and	r24, r24
 962:	41 f0       	breq	.+16     	; 0x974 <vTaskDelete+0x92>
 964:	80 91 7f 04 	lds	r24, 0x047F	; 0x80047f <pxCurrentTCB>
 968:	90 91 80 04 	lds	r25, 0x0480	; 0x800480 <pxCurrentTCB+0x1>
 96c:	c8 17       	cp	r28, r24
 96e:	d9 07       	cpc	r29, r25
 970:	09 f4       	brne	.+2      	; 0x974 <vTaskDelete+0x92>
 972:	1a dd       	rcall	.-1484   	; 0x3a8 <vPortYield>
 974:	df 91       	pop	r29
 976:	cf 91       	pop	r28
 978:	1f 91       	pop	r17
 97a:	0f 91       	pop	r16
 97c:	08 95       	ret

0000097e <vTaskStartScheduler>:
 97e:	ef 92       	push	r14
 980:	ff 92       	push	r15
 982:	0f 93       	push	r16
 984:	83 e0       	ldi	r24, 0x03	; 3
 986:	e8 2e       	mov	r14, r24
 988:	84 e0       	ldi	r24, 0x04	; 4
 98a:	f8 2e       	mov	r15, r24
 98c:	00 e0       	ldi	r16, 0x00	; 0
 98e:	20 e0       	ldi	r18, 0x00	; 0
 990:	30 e0       	ldi	r19, 0x00	; 0
 992:	45 e5       	ldi	r20, 0x55	; 85
 994:	50 e0       	ldi	r21, 0x00	; 0
 996:	60 e0       	ldi	r22, 0x00	; 0
 998:	72 e0       	ldi	r23, 0x02	; 2
 99a:	8a e5       	ldi	r24, 0x5A	; 90
 99c:	93 e0       	ldi	r25, 0x03	; 3
 99e:	ac de       	rcall	.-680    	; 0x6f8 <xTaskCreate>
 9a0:	81 30       	cpi	r24, 0x01	; 1
 9a2:	d1 f4       	brne	.+52     	; 0x9d8 <vTaskStartScheduler+0x5a>
 9a4:	f8 94       	cli
 9a6:	4f ef       	ldi	r20, 0xFF	; 255
 9a8:	5f ef       	ldi	r21, 0xFF	; 255
 9aa:	ba 01       	movw	r22, r20
 9ac:	40 93 05 04 	sts	0x0405, r20	; 0x800405 <xNextTaskUnblockTime>
 9b0:	50 93 06 04 	sts	0x0406, r21	; 0x800406 <xNextTaskUnblockTime+0x1>
 9b4:	60 93 07 04 	sts	0x0407, r22	; 0x800407 <xNextTaskUnblockTime+0x2>
 9b8:	70 93 08 04 	sts	0x0408, r23	; 0x800408 <xNextTaskUnblockTime+0x3>
 9bc:	80 93 10 04 	sts	0x0410, r24	; 0x800410 <xSchedulerRunning>
 9c0:	10 92 12 04 	sts	0x0412, r1	; 0x800412 <xTickCount>
 9c4:	10 92 13 04 	sts	0x0413, r1	; 0x800413 <xTickCount+0x1>
 9c8:	10 92 14 04 	sts	0x0414, r1	; 0x800414 <xTickCount+0x2>
 9cc:	10 92 15 04 	sts	0x0415, r1	; 0x800415 <xTickCount+0x3>
 9d0:	0f 91       	pop	r16
 9d2:	ff 90       	pop	r15
 9d4:	ef 90       	pop	r14
 9d6:	ae cc       	rjmp	.-1700   	; 0x334 <xPortStartScheduler>
 9d8:	0f 91       	pop	r16
 9da:	ff 90       	pop	r15
 9dc:	ef 90       	pop	r14
 9de:	08 95       	ret

000009e0 <vTaskSuspendAll>:
 9e0:	80 91 02 04 	lds	r24, 0x0402	; 0x800402 <uxSchedulerSuspended>
 9e4:	8f 5f       	subi	r24, 0xFF	; 255
 9e6:	80 93 02 04 	sts	0x0402, r24	; 0x800402 <uxSchedulerSuspended>
 9ea:	08 95       	ret

000009ec <xTaskGetTickCount>:
 9ec:	0f b6       	in	r0, 0x3f	; 63
 9ee:	f8 94       	cli
 9f0:	0f 92       	push	r0
 9f2:	60 91 12 04 	lds	r22, 0x0412	; 0x800412 <xTickCount>
 9f6:	70 91 13 04 	lds	r23, 0x0413	; 0x800413 <xTickCount+0x1>
 9fa:	80 91 14 04 	lds	r24, 0x0414	; 0x800414 <xTickCount+0x2>
 9fe:	90 91 15 04 	lds	r25, 0x0415	; 0x800415 <xTickCount+0x3>
 a02:	0f 90       	pop	r0
 a04:	0f be       	out	0x3f, r0	; 63
 a06:	08 95       	ret

00000a08 <xTaskIncrementTick>:
 a08:	af 92       	push	r10
 a0a:	bf 92       	push	r11
 a0c:	cf 92       	push	r12
 a0e:	df 92       	push	r13
 a10:	ef 92       	push	r14
 a12:	ff 92       	push	r15
 a14:	0f 93       	push	r16
 a16:	1f 93       	push	r17
 a18:	cf 93       	push	r28
 a1a:	df 93       	push	r29
 a1c:	80 91 02 04 	lds	r24, 0x0402	; 0x800402 <uxSchedulerSuspended>
 a20:	81 11       	cpse	r24, r1
 a22:	a8 c0       	rjmp	.+336    	; 0xb74 <xTaskIncrementTick+0x16c>
 a24:	c0 90 12 04 	lds	r12, 0x0412	; 0x800412 <xTickCount>
 a28:	d0 90 13 04 	lds	r13, 0x0413	; 0x800413 <xTickCount+0x1>
 a2c:	e0 90 14 04 	lds	r14, 0x0414	; 0x800414 <xTickCount+0x2>
 a30:	f0 90 15 04 	lds	r15, 0x0415	; 0x800415 <xTickCount+0x3>
 a34:	8f ef       	ldi	r24, 0xFF	; 255
 a36:	c8 1a       	sub	r12, r24
 a38:	d8 0a       	sbc	r13, r24
 a3a:	e8 0a       	sbc	r14, r24
 a3c:	f8 0a       	sbc	r15, r24
 a3e:	c0 92 12 04 	sts	0x0412, r12	; 0x800412 <xTickCount>
 a42:	d0 92 13 04 	sts	0x0413, r13	; 0x800413 <xTickCount+0x1>
 a46:	e0 92 14 04 	sts	0x0414, r14	; 0x800414 <xTickCount+0x2>
 a4a:	f0 92 15 04 	sts	0x0415, r15	; 0x800415 <xTickCount+0x3>
 a4e:	c1 14       	cp	r12, r1
 a50:	d1 04       	cpc	r13, r1
 a52:	e1 04       	cpc	r14, r1
 a54:	f1 04       	cpc	r15, r1
 a56:	b1 f4       	brne	.+44     	; 0xa84 <xTaskIncrementTick+0x7c>
 a58:	80 91 3b 04 	lds	r24, 0x043B	; 0x80043b <pxDelayedTaskList>
 a5c:	90 91 3c 04 	lds	r25, 0x043C	; 0x80043c <pxDelayedTaskList+0x1>
 a60:	20 91 39 04 	lds	r18, 0x0439	; 0x800439 <pxOverflowDelayedTaskList>
 a64:	30 91 3a 04 	lds	r19, 0x043A	; 0x80043a <pxOverflowDelayedTaskList+0x1>
 a68:	30 93 3c 04 	sts	0x043C, r19	; 0x80043c <pxDelayedTaskList+0x1>
 a6c:	20 93 3b 04 	sts	0x043B, r18	; 0x80043b <pxDelayedTaskList>
 a70:	90 93 3a 04 	sts	0x043A, r25	; 0x80043a <pxOverflowDelayedTaskList+0x1>
 a74:	80 93 39 04 	sts	0x0439, r24	; 0x800439 <pxOverflowDelayedTaskList>
 a78:	80 91 0a 04 	lds	r24, 0x040A	; 0x80040a <xNumOfOverflows>
 a7c:	8f 5f       	subi	r24, 0xFF	; 255
 a7e:	80 93 0a 04 	sts	0x040A, r24	; 0x80040a <xNumOfOverflows>
 a82:	77 dd       	rcall	.-1298   	; 0x572 <prvResetNextTaskUnblockTime>
 a84:	80 91 05 04 	lds	r24, 0x0405	; 0x800405 <xNextTaskUnblockTime>
 a88:	90 91 06 04 	lds	r25, 0x0406	; 0x800406 <xNextTaskUnblockTime+0x1>
 a8c:	a0 91 07 04 	lds	r26, 0x0407	; 0x800407 <xNextTaskUnblockTime+0x2>
 a90:	b0 91 08 04 	lds	r27, 0x0408	; 0x800408 <xNextTaskUnblockTime+0x3>
 a94:	c0 e0       	ldi	r28, 0x00	; 0
 a96:	c8 16       	cp	r12, r24
 a98:	d9 06       	cpc	r13, r25
 a9a:	ea 06       	cpc	r14, r26
 a9c:	fb 06       	cpc	r15, r27
 a9e:	08 f4       	brcc	.+2      	; 0xaa2 <xTaskIncrementTick+0x9a>
 aa0:	54 c0       	rjmp	.+168    	; 0xb4a <xTaskIncrementTick+0x142>
 aa2:	db e0       	ldi	r29, 0x0B	; 11
 aa4:	e0 91 3b 04 	lds	r30, 0x043B	; 0x80043b <pxDelayedTaskList>
 aa8:	f0 91 3c 04 	lds	r31, 0x043C	; 0x80043c <pxDelayedTaskList+0x1>
 aac:	80 81       	ld	r24, Z
 aae:	81 11       	cpse	r24, r1
 ab0:	04 c0       	rjmp	.+8      	; 0xaba <xTaskIncrementTick+0xb2>
 ab2:	8f ef       	ldi	r24, 0xFF	; 255
 ab4:	9f ef       	ldi	r25, 0xFF	; 255
 ab6:	dc 01       	movw	r26, r24
 ab8:	13 c0       	rjmp	.+38     	; 0xae0 <xTaskIncrementTick+0xd8>
 aba:	e0 91 3b 04 	lds	r30, 0x043B	; 0x80043b <pxDelayedTaskList>
 abe:	f0 91 3c 04 	lds	r31, 0x043C	; 0x80043c <pxDelayedTaskList+0x1>
 ac2:	07 80       	ldd	r0, Z+7	; 0x07
 ac4:	f0 85       	ldd	r31, Z+8	; 0x08
 ac6:	e0 2d       	mov	r30, r0
 ac8:	00 85       	ldd	r16, Z+8	; 0x08
 aca:	11 85       	ldd	r17, Z+9	; 0x09
 acc:	f8 01       	movw	r30, r16
 ace:	82 81       	ldd	r24, Z+2	; 0x02
 ad0:	93 81       	ldd	r25, Z+3	; 0x03
 ad2:	a4 81       	ldd	r26, Z+4	; 0x04
 ad4:	b5 81       	ldd	r27, Z+5	; 0x05
 ad6:	c8 16       	cp	r12, r24
 ad8:	d9 06       	cpc	r13, r25
 ada:	ea 06       	cpc	r14, r26
 adc:	fb 06       	cpc	r15, r27
 ade:	48 f4       	brcc	.+18     	; 0xaf2 <xTaskIncrementTick+0xea>
 ae0:	80 93 05 04 	sts	0x0405, r24	; 0x800405 <xNextTaskUnblockTime>
 ae4:	90 93 06 04 	sts	0x0406, r25	; 0x800406 <xNextTaskUnblockTime+0x1>
 ae8:	a0 93 07 04 	sts	0x0407, r26	; 0x800407 <xNextTaskUnblockTime+0x2>
 aec:	b0 93 08 04 	sts	0x0408, r27	; 0x800408 <xNextTaskUnblockTime+0x3>
 af0:	2c c0       	rjmp	.+88     	; 0xb4a <xTaskIncrementTick+0x142>
 af2:	58 01       	movw	r10, r16
 af4:	f2 e0       	ldi	r31, 0x02	; 2
 af6:	af 0e       	add	r10, r31
 af8:	b1 1c       	adc	r11, r1
 afa:	c5 01       	movw	r24, r10
 afc:	8b db       	rcall	.-2282   	; 0x214 <uxListRemove>
 afe:	d8 01       	movw	r26, r16
 b00:	58 96       	adiw	r26, 0x18	; 24
 b02:	8d 91       	ld	r24, X+
 b04:	9c 91       	ld	r25, X
 b06:	59 97       	sbiw	r26, 0x19	; 25
 b08:	89 2b       	or	r24, r25
 b0a:	19 f0       	breq	.+6      	; 0xb12 <xTaskIncrementTick+0x10a>
 b0c:	c8 01       	movw	r24, r16
 b0e:	0e 96       	adiw	r24, 0x0e	; 14
 b10:	81 db       	rcall	.-2302   	; 0x214 <uxListRemove>
 b12:	f8 01       	movw	r30, r16
 b14:	82 8d       	ldd	r24, Z+26	; 0x1a
 b16:	90 91 11 04 	lds	r25, 0x0411	; 0x800411 <uxTopReadyPriority>
 b1a:	98 17       	cp	r25, r24
 b1c:	10 f4       	brcc	.+4      	; 0xb22 <xTaskIncrementTick+0x11a>
 b1e:	80 93 11 04 	sts	0x0411, r24	; 0x800411 <uxTopReadyPriority>
 b22:	d8 9f       	mul	r29, r24
 b24:	c0 01       	movw	r24, r0
 b26:	11 24       	eor	r1, r1
 b28:	b5 01       	movw	r22, r10
 b2a:	8d 5a       	subi	r24, 0xAD	; 173
 b2c:	9b 4f       	sbci	r25, 0xFB	; 251
 b2e:	0d db       	rcall	.-2534   	; 0x14a <vListInsertEnd>
 b30:	e0 91 7f 04 	lds	r30, 0x047F	; 0x80047f <pxCurrentTCB>
 b34:	f0 91 80 04 	lds	r31, 0x0480	; 0x800480 <pxCurrentTCB+0x1>
 b38:	d8 01       	movw	r26, r16
 b3a:	5a 96       	adiw	r26, 0x1a	; 26
 b3c:	9c 91       	ld	r25, X
 b3e:	82 8d       	ldd	r24, Z+26	; 0x1a
 b40:	98 17       	cp	r25, r24
 b42:	08 f4       	brcc	.+2      	; 0xb46 <xTaskIncrementTick+0x13e>
 b44:	af cf       	rjmp	.-162    	; 0xaa4 <xTaskIncrementTick+0x9c>
 b46:	c1 e0       	ldi	r28, 0x01	; 1
 b48:	ad cf       	rjmp	.-166    	; 0xaa4 <xTaskIncrementTick+0x9c>
 b4a:	e0 91 7f 04 	lds	r30, 0x047F	; 0x80047f <pxCurrentTCB>
 b4e:	f0 91 80 04 	lds	r31, 0x0480	; 0x800480 <pxCurrentTCB+0x1>
 b52:	e2 8d       	ldd	r30, Z+26	; 0x1a
 b54:	bb e0       	ldi	r27, 0x0B	; 11
 b56:	eb 9f       	mul	r30, r27
 b58:	f0 01       	movw	r30, r0
 b5a:	11 24       	eor	r1, r1
 b5c:	ed 5a       	subi	r30, 0xAD	; 173
 b5e:	fb 4f       	sbci	r31, 0xFB	; 251
 b60:	80 81       	ld	r24, Z
 b62:	82 30       	cpi	r24, 0x02	; 2
 b64:	08 f0       	brcs	.+2      	; 0xb68 <xTaskIncrementTick+0x160>
 b66:	c1 e0       	ldi	r28, 0x01	; 1
 b68:	80 91 0b 04 	lds	r24, 0x040B	; 0x80040b <xYieldPending>
 b6c:	88 23       	and	r24, r24
 b6e:	b1 f0       	breq	.+44     	; 0xb9c <xTaskIncrementTick+0x194>
 b70:	c1 e0       	ldi	r28, 0x01	; 1
 b72:	14 c0       	rjmp	.+40     	; 0xb9c <xTaskIncrementTick+0x194>
 b74:	80 91 0c 04 	lds	r24, 0x040C	; 0x80040c <xPendedTicks>
 b78:	90 91 0d 04 	lds	r25, 0x040D	; 0x80040d <xPendedTicks+0x1>
 b7c:	a0 91 0e 04 	lds	r26, 0x040E	; 0x80040e <xPendedTicks+0x2>
 b80:	b0 91 0f 04 	lds	r27, 0x040F	; 0x80040f <xPendedTicks+0x3>
 b84:	01 96       	adiw	r24, 0x01	; 1
 b86:	a1 1d       	adc	r26, r1
 b88:	b1 1d       	adc	r27, r1
 b8a:	80 93 0c 04 	sts	0x040C, r24	; 0x80040c <xPendedTicks>
 b8e:	90 93 0d 04 	sts	0x040D, r25	; 0x80040d <xPendedTicks+0x1>
 b92:	a0 93 0e 04 	sts	0x040E, r26	; 0x80040e <xPendedTicks+0x2>
 b96:	b0 93 0f 04 	sts	0x040F, r27	; 0x80040f <xPendedTicks+0x3>
 b9a:	c0 e0       	ldi	r28, 0x00	; 0
 b9c:	8c 2f       	mov	r24, r28
 b9e:	df 91       	pop	r29
 ba0:	cf 91       	pop	r28
 ba2:	1f 91       	pop	r17
 ba4:	0f 91       	pop	r16
 ba6:	ff 90       	pop	r15
 ba8:	ef 90       	pop	r14
 baa:	df 90       	pop	r13
 bac:	cf 90       	pop	r12
 bae:	bf 90       	pop	r11
 bb0:	af 90       	pop	r10
 bb2:	08 95       	ret

00000bb4 <xTaskResumeAll>:
 bb4:	cf 92       	push	r12
 bb6:	df 92       	push	r13
 bb8:	ef 92       	push	r14
 bba:	ff 92       	push	r15
 bbc:	0f 93       	push	r16
 bbe:	1f 93       	push	r17
 bc0:	cf 93       	push	r28
 bc2:	df 93       	push	r29
 bc4:	0f b6       	in	r0, 0x3f	; 63
 bc6:	f8 94       	cli
 bc8:	0f 92       	push	r0
 bca:	80 91 02 04 	lds	r24, 0x0402	; 0x800402 <uxSchedulerSuspended>
 bce:	81 50       	subi	r24, 0x01	; 1
 bd0:	80 93 02 04 	sts	0x0402, r24	; 0x800402 <uxSchedulerSuspended>
 bd4:	80 91 02 04 	lds	r24, 0x0402	; 0x800402 <uxSchedulerSuspended>
 bd8:	88 23       	and	r24, r24
 bda:	11 f0       	breq	.+4      	; 0xbe0 <xTaskResumeAll+0x2c>
 bdc:	80 e0       	ldi	r24, 0x00	; 0
 bde:	5e c0       	rjmp	.+188    	; 0xc9c <xTaskResumeAll+0xe8>
 be0:	80 91 16 04 	lds	r24, 0x0416	; 0x800416 <uxCurrentNumberOfTasks>
 be4:	88 23       	and	r24, r24
 be6:	d1 f3       	breq	.-12     	; 0xbdc <xTaskResumeAll+0x28>
 be8:	c0 e0       	ldi	r28, 0x00	; 0
 bea:	d0 e0       	ldi	r29, 0x00	; 0
 bec:	1b e0       	ldi	r17, 0x0B	; 11
 bee:	01 e0       	ldi	r16, 0x01	; 1
 bf0:	80 91 2e 04 	lds	r24, 0x042E	; 0x80042e <xPendingReadyList>
 bf4:	88 23       	and	r24, r24
 bf6:	41 f1       	breq	.+80     	; 0xc48 <xTaskResumeAll+0x94>
 bf8:	e0 91 35 04 	lds	r30, 0x0435	; 0x800435 <xPendingReadyList+0x7>
 bfc:	f0 91 36 04 	lds	r31, 0x0436	; 0x800436 <xPendingReadyList+0x8>
 c00:	c0 85       	ldd	r28, Z+8	; 0x08
 c02:	d1 85       	ldd	r29, Z+9	; 0x09
 c04:	ce 01       	movw	r24, r28
 c06:	0e 96       	adiw	r24, 0x0e	; 14
 c08:	05 db       	rcall	.-2550   	; 0x214 <uxListRemove>
 c0a:	7e 01       	movw	r14, r28
 c0c:	82 e0       	ldi	r24, 0x02	; 2
 c0e:	e8 0e       	add	r14, r24
 c10:	f1 1c       	adc	r15, r1
 c12:	c7 01       	movw	r24, r14
 c14:	ff da       	rcall	.-2562   	; 0x214 <uxListRemove>
 c16:	8a 8d       	ldd	r24, Y+26	; 0x1a
 c18:	90 91 11 04 	lds	r25, 0x0411	; 0x800411 <uxTopReadyPriority>
 c1c:	98 17       	cp	r25, r24
 c1e:	10 f4       	brcc	.+4      	; 0xc24 <xTaskResumeAll+0x70>
 c20:	80 93 11 04 	sts	0x0411, r24	; 0x800411 <uxTopReadyPriority>
 c24:	18 9f       	mul	r17, r24
 c26:	c0 01       	movw	r24, r0
 c28:	11 24       	eor	r1, r1
 c2a:	b7 01       	movw	r22, r14
 c2c:	8d 5a       	subi	r24, 0xAD	; 173
 c2e:	9b 4f       	sbci	r25, 0xFB	; 251
 c30:	8c da       	rcall	.-2792   	; 0x14a <vListInsertEnd>
 c32:	e0 91 7f 04 	lds	r30, 0x047F	; 0x80047f <pxCurrentTCB>
 c36:	f0 91 80 04 	lds	r31, 0x0480	; 0x800480 <pxCurrentTCB+0x1>
 c3a:	9a 8d       	ldd	r25, Y+26	; 0x1a
 c3c:	82 8d       	ldd	r24, Z+26	; 0x1a
 c3e:	98 17       	cp	r25, r24
 c40:	b8 f2       	brcs	.-82     	; 0xbf0 <xTaskResumeAll+0x3c>
 c42:	00 93 0b 04 	sts	0x040B, r16	; 0x80040b <xYieldPending>
 c46:	d4 cf       	rjmp	.-88     	; 0xbf0 <xTaskResumeAll+0x3c>
 c48:	cd 2b       	or	r28, r29
 c4a:	09 f0       	breq	.+2      	; 0xc4e <xTaskResumeAll+0x9a>
 c4c:	92 dc       	rcall	.-1756   	; 0x572 <prvResetNextTaskUnblockTime>
 c4e:	c0 90 0c 04 	lds	r12, 0x040C	; 0x80040c <xPendedTicks>
 c52:	d0 90 0d 04 	lds	r13, 0x040D	; 0x80040d <xPendedTicks+0x1>
 c56:	e0 90 0e 04 	lds	r14, 0x040E	; 0x80040e <xPendedTicks+0x2>
 c5a:	f0 90 0f 04 	lds	r15, 0x040F	; 0x80040f <xPendedTicks+0x3>
 c5e:	c1 14       	cp	r12, r1
 c60:	d1 04       	cpc	r13, r1
 c62:	e1 04       	cpc	r14, r1
 c64:	f1 04       	cpc	r15, r1
 c66:	99 f0       	breq	.+38     	; 0xc8e <xTaskResumeAll+0xda>
 c68:	c1 e0       	ldi	r28, 0x01	; 1
 c6a:	ce de       	rcall	.-612    	; 0xa08 <xTaskIncrementTick>
 c6c:	81 11       	cpse	r24, r1
 c6e:	c0 93 0b 04 	sts	0x040B, r28	; 0x80040b <xYieldPending>
 c72:	81 e0       	ldi	r24, 0x01	; 1
 c74:	c8 1a       	sub	r12, r24
 c76:	d1 08       	sbc	r13, r1
 c78:	e1 08       	sbc	r14, r1
 c7a:	f1 08       	sbc	r15, r1
 c7c:	b1 f7       	brne	.-20     	; 0xc6a <xTaskResumeAll+0xb6>
 c7e:	10 92 0c 04 	sts	0x040C, r1	; 0x80040c <xPendedTicks>
 c82:	10 92 0d 04 	sts	0x040D, r1	; 0x80040d <xPendedTicks+0x1>
 c86:	10 92 0e 04 	sts	0x040E, r1	; 0x80040e <xPendedTicks+0x2>
 c8a:	10 92 0f 04 	sts	0x040F, r1	; 0x80040f <xPendedTicks+0x3>
 c8e:	80 91 0b 04 	lds	r24, 0x040B	; 0x80040b <xYieldPending>
 c92:	88 23       	and	r24, r24
 c94:	09 f4       	brne	.+2      	; 0xc98 <xTaskResumeAll+0xe4>
 c96:	a2 cf       	rjmp	.-188    	; 0xbdc <xTaskResumeAll+0x28>
 c98:	87 db       	rcall	.-2290   	; 0x3a8 <vPortYield>
 c9a:	81 e0       	ldi	r24, 0x01	; 1
 c9c:	0f 90       	pop	r0
 c9e:	0f be       	out	0x3f, r0	; 63
 ca0:	df 91       	pop	r29
 ca2:	cf 91       	pop	r28
 ca4:	1f 91       	pop	r17
 ca6:	0f 91       	pop	r16
 ca8:	ff 90       	pop	r15
 caa:	ef 90       	pop	r14
 cac:	df 90       	pop	r13
 cae:	cf 90       	pop	r12
 cb0:	08 95       	ret

00000cb2 <vTaskDelayUntil>:
 cb2:	8f 92       	push	r8
 cb4:	9f 92       	push	r9
 cb6:	af 92       	push	r10
 cb8:	bf 92       	push	r11
 cba:	cf 92       	push	r12
 cbc:	df 92       	push	r13
 cbe:	ef 92       	push	r14
 cc0:	ff 92       	push	r15
 cc2:	0f 93       	push	r16
 cc4:	1f 93       	push	r17
 cc6:	cf 93       	push	r28
 cc8:	df 93       	push	r29
 cca:	ec 01       	movw	r28, r24
 ccc:	6a 01       	movw	r12, r20
 cce:	7b 01       	movw	r14, r22
 cd0:	87 de       	rcall	.-754    	; 0x9e0 <vTaskSuspendAll>
 cd2:	80 90 12 04 	lds	r8, 0x0412	; 0x800412 <xTickCount>
 cd6:	90 90 13 04 	lds	r9, 0x0413	; 0x800413 <xTickCount+0x1>
 cda:	a0 90 14 04 	lds	r10, 0x0414	; 0x800414 <xTickCount+0x2>
 cde:	b0 90 15 04 	lds	r11, 0x0415	; 0x800415 <xTickCount+0x3>
 ce2:	08 81       	ld	r16, Y
 ce4:	19 81       	ldd	r17, Y+1	; 0x01
 ce6:	2a 81       	ldd	r18, Y+2	; 0x02
 ce8:	3b 81       	ldd	r19, Y+3	; 0x03
 cea:	d9 01       	movw	r26, r18
 cec:	c8 01       	movw	r24, r16
 cee:	8c 0d       	add	r24, r12
 cf0:	9d 1d       	adc	r25, r13
 cf2:	ae 1d       	adc	r26, r14
 cf4:	bf 1d       	adc	r27, r15
 cf6:	80 16       	cp	r8, r16
 cf8:	91 06       	cpc	r9, r17
 cfa:	a2 06       	cpc	r10, r18
 cfc:	b3 06       	cpc	r11, r19
 cfe:	30 f4       	brcc	.+12     	; 0xd0c <vTaskDelayUntil+0x5a>
 d00:	80 17       	cp	r24, r16
 d02:	91 07       	cpc	r25, r17
 d04:	a2 07       	cpc	r26, r18
 d06:	b3 07       	cpc	r27, r19
 d08:	60 f4       	brcc	.+24     	; 0xd22 <vTaskDelayUntil+0x70>
 d0a:	05 c0       	rjmp	.+10     	; 0xd16 <vTaskDelayUntil+0x64>
 d0c:	80 17       	cp	r24, r16
 d0e:	91 07       	cpc	r25, r17
 d10:	a2 07       	cpc	r26, r18
 d12:	b3 07       	cpc	r27, r19
 d14:	40 f0       	brcs	.+16     	; 0xd26 <vTaskDelayUntil+0x74>
 d16:	21 e0       	ldi	r18, 0x01	; 1
 d18:	88 16       	cp	r8, r24
 d1a:	99 06       	cpc	r9, r25
 d1c:	aa 06       	cpc	r10, r26
 d1e:	bb 06       	cpc	r11, r27
 d20:	18 f0       	brcs	.+6      	; 0xd28 <vTaskDelayUntil+0x76>
 d22:	20 e0       	ldi	r18, 0x00	; 0
 d24:	01 c0       	rjmp	.+2      	; 0xd28 <vTaskDelayUntil+0x76>
 d26:	21 e0       	ldi	r18, 0x01	; 1
 d28:	88 83       	st	Y, r24
 d2a:	99 83       	std	Y+1, r25	; 0x01
 d2c:	aa 83       	std	Y+2, r26	; 0x02
 d2e:	bb 83       	std	Y+3, r27	; 0x03
 d30:	22 23       	and	r18, r18
 d32:	41 f0       	breq	.+16     	; 0xd44 <vTaskDelayUntil+0x92>
 d34:	bc 01       	movw	r22, r24
 d36:	cd 01       	movw	r24, r26
 d38:	68 19       	sub	r22, r8
 d3a:	79 09       	sbc	r23, r9
 d3c:	8a 09       	sbc	r24, r10
 d3e:	9b 09       	sbc	r25, r11
 d40:	40 e0       	ldi	r20, 0x00	; 0
 d42:	39 dc       	rcall	.-1934   	; 0x5b6 <prvAddCurrentTaskToDelayedList>
 d44:	37 df       	rcall	.-402    	; 0xbb4 <xTaskResumeAll>
 d46:	81 11       	cpse	r24, r1
 d48:	01 c0       	rjmp	.+2      	; 0xd4c <vTaskDelayUntil+0x9a>
 d4a:	2e db       	rcall	.-2468   	; 0x3a8 <vPortYield>
 d4c:	df 91       	pop	r29
 d4e:	cf 91       	pop	r28
 d50:	1f 91       	pop	r17
 d52:	0f 91       	pop	r16
 d54:	ff 90       	pop	r15
 d56:	ef 90       	pop	r14
 d58:	df 90       	pop	r13
 d5a:	cf 90       	pop	r12
 d5c:	bf 90       	pop	r11
 d5e:	af 90       	pop	r10
 d60:	9f 90       	pop	r9
 d62:	8f 90       	pop	r8
 d64:	08 95       	ret

00000d66 <vTaskSwitchContext>:
 d66:	80 91 02 04 	lds	r24, 0x0402	; 0x800402 <uxSchedulerSuspended>
 d6a:	88 23       	and	r24, r24
 d6c:	21 f0       	breq	.+8      	; 0xd76 <vTaskSwitchContext+0x10>
 d6e:	81 e0       	ldi	r24, 0x01	; 1
 d70:	80 93 0b 04 	sts	0x040B, r24	; 0x80040b <xYieldPending>
 d74:	08 95       	ret
 d76:	10 92 0b 04 	sts	0x040B, r1	; 0x80040b <xYieldPending>
 d7a:	80 91 11 04 	lds	r24, 0x0411	; 0x800411 <uxTopReadyPriority>
 d7e:	6b e0       	ldi	r22, 0x0B	; 11
 d80:	48 2f       	mov	r20, r24
 d82:	50 e0       	ldi	r21, 0x00	; 0
 d84:	64 9f       	mul	r22, r20
 d86:	90 01       	movw	r18, r0
 d88:	65 9f       	mul	r22, r21
 d8a:	30 0d       	add	r19, r0
 d8c:	11 24       	eor	r1, r1
 d8e:	f9 01       	movw	r30, r18
 d90:	ed 5a       	subi	r30, 0xAD	; 173
 d92:	fb 4f       	sbci	r31, 0xFB	; 251
 d94:	90 81       	ld	r25, Z
 d96:	91 11       	cpse	r25, r1
 d98:	02 c0       	rjmp	.+4      	; 0xd9e <vTaskSwitchContext+0x38>
 d9a:	81 50       	subi	r24, 0x01	; 1
 d9c:	f1 cf       	rjmp	.-30     	; 0xd80 <vTaskSwitchContext+0x1a>
 d9e:	a1 81       	ldd	r26, Z+1	; 0x01
 da0:	b2 81       	ldd	r27, Z+2	; 0x02
 da2:	14 96       	adiw	r26, 0x04	; 4
 da4:	0d 90       	ld	r0, X+
 da6:	bc 91       	ld	r27, X
 da8:	a0 2d       	mov	r26, r0
 daa:	b2 83       	std	Z+2, r27	; 0x02
 dac:	a1 83       	std	Z+1, r26	; 0x01
 dae:	2a 5a       	subi	r18, 0xAA	; 170
 db0:	3b 4f       	sbci	r19, 0xFB	; 251
 db2:	a2 17       	cp	r26, r18
 db4:	b3 07       	cpc	r27, r19
 db6:	31 f4       	brne	.+12     	; 0xdc4 <vTaskSwitchContext+0x5e>
 db8:	14 96       	adiw	r26, 0x04	; 4
 dba:	2d 91       	ld	r18, X+
 dbc:	3c 91       	ld	r19, X
 dbe:	15 97       	sbiw	r26, 0x05	; 5
 dc0:	32 83       	std	Z+2, r19	; 0x02
 dc2:	21 83       	std	Z+1, r18	; 0x01
 dc4:	9b e0       	ldi	r25, 0x0B	; 11
 dc6:	94 9f       	mul	r25, r20
 dc8:	f0 01       	movw	r30, r0
 dca:	95 9f       	mul	r25, r21
 dcc:	f0 0d       	add	r31, r0
 dce:	11 24       	eor	r1, r1
 dd0:	ed 5a       	subi	r30, 0xAD	; 173
 dd2:	fb 4f       	sbci	r31, 0xFB	; 251
 dd4:	01 80       	ldd	r0, Z+1	; 0x01
 dd6:	f2 81       	ldd	r31, Z+2	; 0x02
 dd8:	e0 2d       	mov	r30, r0
 dda:	20 85       	ldd	r18, Z+8	; 0x08
 ddc:	31 85       	ldd	r19, Z+9	; 0x09
 dde:	30 93 80 04 	sts	0x0480, r19	; 0x800480 <pxCurrentTCB+0x1>
 de2:	20 93 7f 04 	sts	0x047F, r18	; 0x80047f <pxCurrentTCB>
 de6:	80 93 11 04 	sts	0x0411, r24	; 0x800411 <uxTopReadyPriority>
 dea:	08 95       	ret

00000dec <task_blinkLedBlue>:
 dec:	cf 93       	push	r28
 dee:	df 93       	push	r29
 df0:	00 d0       	rcall	.+0      	; 0xdf2 <task_blinkLedBlue+0x6>
 df2:	00 d0       	rcall	.+0      	; 0xdf4 <task_blinkLedBlue+0x8>
 df4:	cd b7       	in	r28, 0x3d	; 61
 df6:	de b7       	in	r29, 0x3e	; 62
 df8:	7c 01       	movw	r14, r24
 dfa:	f8 dd       	rcall	.-1040   	; 0x9ec <xTaskGetTickCount>
 dfc:	69 83       	std	Y+1, r22	; 0x01
 dfe:	7a 83       	std	Y+2, r23	; 0x02
 e00:	8b 83       	std	Y+3, r24	; 0x03
 e02:	9c 83       	std	Y+4, r25	; 0x04
 e04:	80 91 02 01 	lds	r24, 0x0102	; 0x800102 <__DATA_REGION_ORIGIN__+0x2>
 e08:	88 60       	ori	r24, 0x08	; 8
 e0a:	80 93 02 01 	sts	0x0102, r24	; 0x800102 <__DATA_REGION_ORIGIN__+0x2>
 e0e:	87 01       	movw	r16, r14
 e10:	88 e0       	ldi	r24, 0x08	; 8
 e12:	f8 2e       	mov	r15, r24
 e14:	44 ef       	ldi	r20, 0xF4	; 244
 e16:	51 e0       	ldi	r21, 0x01	; 1
 e18:	60 e0       	ldi	r22, 0x00	; 0
 e1a:	70 e0       	ldi	r23, 0x00	; 0
 e1c:	ce 01       	movw	r24, r28
 e1e:	01 96       	adiw	r24, 0x01	; 1
 e20:	48 df       	rcall	.-368    	; 0xcb2 <vTaskDelayUntil>
 e22:	80 91 02 01 	lds	r24, 0x0102	; 0x800102 <__DATA_REGION_ORIGIN__+0x2>
 e26:	8f 25       	eor	r24, r15
 e28:	80 93 02 01 	sts	0x0102, r24	; 0x800102 <__DATA_REGION_ORIGIN__+0x2>
 e2c:	03 33       	cpi	r16, 0x33	; 51
 e2e:	11 05       	cpc	r17, r1
 e30:	18 f4       	brcc	.+6      	; 0xe38 <task_blinkLedBlue+0x4c>
 e32:	0f 5f       	subi	r16, 0xFF	; 255
 e34:	1f 4f       	sbci	r17, 0xFF	; 255
 e36:	ee cf       	rjmp	.-36     	; 0xe14 <task_blinkLedBlue+0x28>
 e38:	80 91 81 04 	lds	r24, 0x0481	; 0x800481 <blinkLedBlue_task1Handle>
 e3c:	90 91 82 04 	lds	r25, 0x0482	; 0x800482 <blinkLedBlue_task1Handle+0x1>
 e40:	50 dd       	rcall	.-1376   	; 0x8e2 <vTaskDelete>
 e42:	f7 cf       	rjmp	.-18     	; 0xe32 <task_blinkLedBlue+0x46>

00000e44 <main>:
 e44:	80 91 01 01 	lds	r24, 0x0101	; 0x800101 <__DATA_REGION_ORIGIN__+0x1>
 e48:	88 60       	ori	r24, 0x08	; 8
 e4a:	80 93 01 01 	sts	0x0101, r24	; 0x800101 <__DATA_REGION_ORIGIN__+0x1>
 e4e:	81 e8       	ldi	r24, 0x81	; 129
 e50:	e8 2e       	mov	r14, r24
 e52:	84 e0       	ldi	r24, 0x04	; 4
 e54:	f8 2e       	mov	r15, r24
 e56:	00 e0       	ldi	r16, 0x00	; 0
 e58:	2a e0       	ldi	r18, 0x0A	; 10
 e5a:	30 e0       	ldi	r19, 0x00	; 0
 e5c:	45 e5       	ldi	r20, 0x55	; 85
 e5e:	50 e0       	ldi	r21, 0x00	; 0
 e60:	65 e0       	ldi	r22, 0x05	; 5
 e62:	72 e0       	ldi	r23, 0x02	; 2
 e64:	86 ef       	ldi	r24, 0xF6	; 246
 e66:	96 e0       	ldi	r25, 0x06	; 6
 e68:	47 dc       	rcall	.-1906   	; 0x6f8 <xTaskCreate>
 e6a:	89 dd       	rcall	.-1262   	; 0x97e <vTaskStartScheduler>
 e6c:	ff cf       	rjmp	.-2      	; 0xe6c <main+0x28>

00000e6e <_exit>:
 e6e:	f8 94       	cli

00000e70 <__stop_program>:
 e70:	ff cf       	rjmp	.-2      	; 0xe70 <__stop_program>
